
/media/sf_virtualbox_shared/scr1_opensource/build/add.elf:     file format elf32-littleriscv


Disassembly of section .text.init:

00000000 <SIM_EXIT-0xf4>:
	...

000000f4 <SIM_EXIT>:
  f4:	00000013          	nop

000000f8 <SIM_STOP>:
  f8:	0000006f          	j	f8 <SIM_STOP>
  fc:	ffff                	0xffff
  fe:	ffff                	0xffff
	...

000001c0 <trap_vector>:
 1c0:	34202f73          	csrr	t5,mcause
 1c4:	4fa1                	li	t6,8
 1c6:	03ff0563          	beq	t5,t6,1f0 <_report>
 1ca:	4fa5                	li	t6,9
 1cc:	03ff0263          	beq	t5,t6,1f0 <_report>
 1d0:	4fad                	li	t6,11
 1d2:	01ff0f63          	beq	t5,t6,1f0 <_report>
 1d6:	00000f17          	auipc	t5,0x0
 1da:	e2af0f13          	addi	t5,t5,-470 # 0 <CL_SIZE-0x20>
 1de:	000f0363          	beqz	t5,1e4 <trap_vector+0x24>
 1e2:	8f02                	jr	t5
 1e4:	34202f73          	csrr	t5,mcause
 1e8:	000f5363          	bgez	t5,1ee <handle_exception>
 1ec:	a009                	j	1ee <handle_exception>

000001ee <handle_exception>:
 1ee:	4505                	li	a0,1

000001f0 <_report>:
 1f0:	4700006f          	j	660 <sc_exit>
 1f4:	00000013          	nop
 1f8:	00000013          	nop
 1fc:	00000013          	nop

00000200 <_start>:
 200:	f1402573          	csrr	a0,mhartid
 204:	e101                	bnez	a0,204 <_start+0x4>
 206:	4e01                	li	t3,0
 208:	00000297          	auipc	t0,0x0
 20c:	fb828293          	addi	t0,t0,-72 # 1c0 <trap_vector>
 210:	30529073          	csrw	mtvec,t0
 214:	4505                	li	a0,1
 216:	057e                	slli	a0,a0,0x1f
 218:	00054863          	bltz	a0,228 <_start+0x28>
 21c:	0ff0000f          	fence
 220:	85f2                	mv	a1,t3
 222:	4501                	li	a0,0
 224:	00000073          	ecall
 228:	00000297          	auipc	t0,0x0
 22c:	dd828293          	addi	t0,t0,-552 # 0 <CL_SIZE-0x20>
 230:	00028e63          	beqz	t0,24c <_start+0x4c>
 234:	10529073          	csrw	stvec,t0
 238:	0000b2b7          	lui	t0,0xb
 23c:	10928293          	addi	t0,t0,265 # b109 <_gp+0xa201>
 240:	30229073          	csrw	medeleg,t0
 244:	30202373          	csrr	t1,medeleg
 248:	fa6293e3          	bne	t0,t1,1ee <handle_exception>
 24c:	30005073          	csrwi	mstatus,0
 250:	00000297          	auipc	t0,0x0
 254:	05028293          	addi	t0,t0,80 # 2a0 <_run_test>
 258:	34129073          	csrw	mepc,t0
 25c:	f1402573          	csrr	a0,mhartid
 260:	30200073          	mret
	...

Disassembly of section .text:

000002a0 <_run_test>:
 2a0:	4081                	li	ra,0
 2a2:	4101                	li	sp,0
 2a4:	002081b3          	add	gp,ra,sp
 2a8:	4e81                	li	t4,0
 2aa:	4e09                	li	t3,2
 2ac:	37d19d63          	bne	gp,t4,626 <fail>

000002b0 <test_3>:
 2b0:	4085                	li	ra,1
 2b2:	4105                	li	sp,1
 2b4:	002081b3          	add	gp,ra,sp
 2b8:	4e89                	li	t4,2
 2ba:	4e0d                	li	t3,3
 2bc:	37d19563          	bne	gp,t4,626 <fail>

000002c0 <test_4>:
 2c0:	408d                	li	ra,3
 2c2:	411d                	li	sp,7
 2c4:	002081b3          	add	gp,ra,sp
 2c8:	4ea9                	li	t4,10
 2ca:	4e11                	li	t3,4
 2cc:	35d19d63          	bne	gp,t4,626 <fail>

000002d0 <test_5>:
 2d0:	4081                	li	ra,0
 2d2:	ffff8137          	lui	sp,0xffff8
 2d6:	002081b3          	add	gp,ra,sp
 2da:	ffff8eb7          	lui	t4,0xffff8
 2de:	4e15                	li	t3,5
 2e0:	35d19363          	bne	gp,t4,626 <fail>

000002e4 <test_6>:
 2e4:	800000b7          	lui	ra,0x80000
 2e8:	4101                	li	sp,0
 2ea:	002081b3          	add	gp,ra,sp
 2ee:	80000eb7          	lui	t4,0x80000
 2f2:	4e19                	li	t3,6
 2f4:	33d19963          	bne	gp,t4,626 <fail>

000002f8 <test_7>:
 2f8:	800000b7          	lui	ra,0x80000
 2fc:	ffff8137          	lui	sp,0xffff8
 300:	002081b3          	add	gp,ra,sp
 304:	7fff8eb7          	lui	t4,0x7fff8
 308:	4e1d                	li	t3,7
 30a:	31d19e63          	bne	gp,t4,626 <fail>

0000030e <test_8>:
 30e:	4081                	li	ra,0
 310:	00008137          	lui	sp,0x8
 314:	fff10113          	addi	sp,sp,-1 # 7fff <_gp+0x70f7>
 318:	002081b3          	add	gp,ra,sp
 31c:	00008eb7          	lui	t4,0x8
 320:	fffe8e93          	addi	t4,t4,-1 # 7fff <_gp+0x70f7>
 324:	4e21                	li	t3,8
 326:	31d19063          	bne	gp,t4,626 <fail>

0000032a <test_9>:
 32a:	800000b7          	lui	ra,0x80000
 32e:	fff08093          	addi	ra,ra,-1 # 7fffffff <_gp+0x7ffff0f7>
 332:	4101                	li	sp,0
 334:	002081b3          	add	gp,ra,sp
 338:	80000eb7          	lui	t4,0x80000
 33c:	fffe8e93          	addi	t4,t4,-1 # 7fffffff <_gp+0x7ffff0f7>
 340:	4e25                	li	t3,9
 342:	2fd19263          	bne	gp,t4,626 <fail>

00000346 <test_10>:
 346:	800000b7          	lui	ra,0x80000
 34a:	fff08093          	addi	ra,ra,-1 # 7fffffff <_gp+0x7ffff0f7>
 34e:	00008137          	lui	sp,0x8
 352:	fff10113          	addi	sp,sp,-1 # 7fff <_gp+0x70f7>
 356:	002081b3          	add	gp,ra,sp
 35a:	80008eb7          	lui	t4,0x80008
 35e:	ffee8e93          	addi	t4,t4,-2 # 80007ffe <_gp+0x800070f6>
 362:	4e29                	li	t3,10
 364:	2dd19163          	bne	gp,t4,626 <fail>

00000368 <test_11>:
 368:	800000b7          	lui	ra,0x80000
 36c:	00008137          	lui	sp,0x8
 370:	fff10113          	addi	sp,sp,-1 # 7fff <_gp+0x70f7>
 374:	002081b3          	add	gp,ra,sp
 378:	80008eb7          	lui	t4,0x80008
 37c:	fffe8e93          	addi	t4,t4,-1 # 80007fff <_gp+0x800070f7>
 380:	4e2d                	li	t3,11
 382:	2bd19263          	bne	gp,t4,626 <fail>

00000386 <test_12>:
 386:	800000b7          	lui	ra,0x80000
 38a:	fff08093          	addi	ra,ra,-1 # 7fffffff <_gp+0x7ffff0f7>
 38e:	ffff8137          	lui	sp,0xffff8
 392:	002081b3          	add	gp,ra,sp
 396:	7fff8eb7          	lui	t4,0x7fff8
 39a:	fffe8e93          	addi	t4,t4,-1 # 7fff7fff <_gp+0x7fff70f7>
 39e:	4e31                	li	t3,12
 3a0:	29d19363          	bne	gp,t4,626 <fail>

000003a4 <test_13>:
 3a4:	4081                	li	ra,0
 3a6:	fff00113          	li	sp,-1
 3aa:	002081b3          	add	gp,ra,sp
 3ae:	fff00e93          	li	t4,-1
 3b2:	4e35                	li	t3,13
 3b4:	27d19963          	bne	gp,t4,626 <fail>

000003b8 <test_14>:
 3b8:	fff00093          	li	ra,-1
 3bc:	4105                	li	sp,1
 3be:	002081b3          	add	gp,ra,sp
 3c2:	4e81                	li	t4,0
 3c4:	4e39                	li	t3,14
 3c6:	27d19063          	bne	gp,t4,626 <fail>

000003ca <test_15>:
 3ca:	fff00093          	li	ra,-1
 3ce:	fff00113          	li	sp,-1
 3d2:	002081b3          	add	gp,ra,sp
 3d6:	ffe00e93          	li	t4,-2
 3da:	4e3d                	li	t3,15
 3dc:	25d19563          	bne	gp,t4,626 <fail>

000003e0 <test_16>:
 3e0:	4085                	li	ra,1
 3e2:	80000137          	lui	sp,0x80000
 3e6:	fff10113          	addi	sp,sp,-1 # 7fffffff <_gp+0x7ffff0f7>
 3ea:	002081b3          	add	gp,ra,sp
 3ee:	80000eb7          	lui	t4,0x80000
 3f2:	4e41                	li	t3,16
 3f4:	23d19963          	bne	gp,t4,626 <fail>

000003f8 <test_17>:
 3f8:	40b5                	li	ra,13
 3fa:	412d                	li	sp,11
 3fc:	908a                	add	ra,ra,sp
 3fe:	4ee1                	li	t4,24
 400:	4e45                	li	t3,17
 402:	23d09263          	bne	ra,t4,626 <fail>

00000406 <test_18>:
 406:	40b9                	li	ra,14
 408:	412d                	li	sp,11
 40a:	9106                	add	sp,sp,ra
 40c:	4ee5                	li	t4,25
 40e:	4e49                	li	t3,18
 410:	21d11b63          	bne	sp,t4,626 <fail>

00000414 <test_19>:
 414:	40b5                	li	ra,13
 416:	9086                	add	ra,ra,ra
 418:	4ee9                	li	t4,26
 41a:	4e4d                	li	t3,19
 41c:	21d09563          	bne	ra,t4,626 <fail>

00000420 <test_20>:
 420:	4201                	li	tp,0
 422:	40b5                	li	ra,13
 424:	412d                	li	sp,11
 426:	002081b3          	add	gp,ra,sp
 42a:	00018313          	mv	t1,gp
 42e:	0205                	addi	tp,tp,1
 430:	4289                	li	t0,2
 432:	fe5218e3          	bne	tp,t0,422 <test_20+0x2>
 436:	4ee1                	li	t4,24
 438:	4e51                	li	t3,20
 43a:	1fd31663          	bne	t1,t4,626 <fail>

0000043e <test_21>:
 43e:	4201                	li	tp,0
 440:	40b9                	li	ra,14
 442:	412d                	li	sp,11
 444:	002081b3          	add	gp,ra,sp
 448:	0001                	nop
 44a:	00018313          	mv	t1,gp
 44e:	0205                	addi	tp,tp,1
 450:	4289                	li	t0,2
 452:	fe5217e3          	bne	tp,t0,440 <test_21+0x2>
 456:	4ee5                	li	t4,25
 458:	4e55                	li	t3,21
 45a:	1dd31663          	bne	t1,t4,626 <fail>

0000045e <test_22>:
 45e:	4201                	li	tp,0
 460:	40bd                	li	ra,15
 462:	412d                	li	sp,11
 464:	002081b3          	add	gp,ra,sp
 468:	0001                	nop
 46a:	0001                	nop
 46c:	00018313          	mv	t1,gp
 470:	0205                	addi	tp,tp,1
 472:	4289                	li	t0,2
 474:	fe5216e3          	bne	tp,t0,460 <test_22+0x2>
 478:	4ee9                	li	t4,26
 47a:	4e59                	li	t3,22
 47c:	1bd31563          	bne	t1,t4,626 <fail>

00000480 <test_23>:
 480:	4201                	li	tp,0
 482:	40b5                	li	ra,13
 484:	412d                	li	sp,11
 486:	002081b3          	add	gp,ra,sp
 48a:	0205                	addi	tp,tp,1
 48c:	4289                	li	t0,2
 48e:	fe521ae3          	bne	tp,t0,482 <test_23+0x2>
 492:	4ee1                	li	t4,24
 494:	4e5d                	li	t3,23
 496:	19d19863          	bne	gp,t4,626 <fail>

0000049a <test_24>:
 49a:	4201                	li	tp,0
 49c:	40b9                	li	ra,14
 49e:	412d                	li	sp,11
 4a0:	0001                	nop
 4a2:	002081b3          	add	gp,ra,sp
 4a6:	0205                	addi	tp,tp,1
 4a8:	4289                	li	t0,2
 4aa:	fe5219e3          	bne	tp,t0,49c <test_24+0x2>
 4ae:	4ee5                	li	t4,25
 4b0:	4e61                	li	t3,24
 4b2:	17d19a63          	bne	gp,t4,626 <fail>

000004b6 <test_25>:
 4b6:	4201                	li	tp,0
 4b8:	40bd                	li	ra,15
 4ba:	412d                	li	sp,11
 4bc:	0001                	nop
 4be:	0001                	nop
 4c0:	002081b3          	add	gp,ra,sp
 4c4:	0205                	addi	tp,tp,1
 4c6:	4289                	li	t0,2
 4c8:	fe5218e3          	bne	tp,t0,4b8 <test_25+0x2>
 4cc:	4ee9                	li	t4,26
 4ce:	4e65                	li	t3,25
 4d0:	15d19b63          	bne	gp,t4,626 <fail>

000004d4 <test_26>:
 4d4:	4201                	li	tp,0
 4d6:	40b5                	li	ra,13
 4d8:	0001                	nop
 4da:	412d                	li	sp,11
 4dc:	002081b3          	add	gp,ra,sp
 4e0:	0205                	addi	tp,tp,1
 4e2:	4289                	li	t0,2
 4e4:	fe5219e3          	bne	tp,t0,4d6 <test_26+0x2>
 4e8:	4ee1                	li	t4,24
 4ea:	4e69                	li	t3,26
 4ec:	13d19d63          	bne	gp,t4,626 <fail>

000004f0 <test_27>:
 4f0:	4201                	li	tp,0
 4f2:	40b9                	li	ra,14
 4f4:	0001                	nop
 4f6:	412d                	li	sp,11
 4f8:	0001                	nop
 4fa:	002081b3          	add	gp,ra,sp
 4fe:	0205                	addi	tp,tp,1
 500:	4289                	li	t0,2
 502:	fe5218e3          	bne	tp,t0,4f2 <test_27+0x2>
 506:	4ee5                	li	t4,25
 508:	4e6d                	li	t3,27
 50a:	11d19e63          	bne	gp,t4,626 <fail>

0000050e <test_28>:
 50e:	4201                	li	tp,0
 510:	40bd                	li	ra,15
 512:	0001                	nop
 514:	0001                	nop
 516:	412d                	li	sp,11
 518:	002081b3          	add	gp,ra,sp
 51c:	0205                	addi	tp,tp,1
 51e:	4289                	li	t0,2
 520:	fe5218e3          	bne	tp,t0,510 <test_28+0x2>
 524:	4ee9                	li	t4,26
 526:	4e71                	li	t3,28
 528:	0fd19f63          	bne	gp,t4,626 <fail>

0000052c <test_29>:
 52c:	4201                	li	tp,0
 52e:	412d                	li	sp,11
 530:	40b5                	li	ra,13
 532:	002081b3          	add	gp,ra,sp
 536:	0205                	addi	tp,tp,1
 538:	4289                	li	t0,2
 53a:	fe521ae3          	bne	tp,t0,52e <test_29+0x2>
 53e:	4ee1                	li	t4,24
 540:	4e75                	li	t3,29
 542:	0fd19263          	bne	gp,t4,626 <fail>

00000546 <test_30>:
 546:	4201                	li	tp,0
 548:	412d                	li	sp,11
 54a:	40b9                	li	ra,14
 54c:	0001                	nop
 54e:	002081b3          	add	gp,ra,sp
 552:	0205                	addi	tp,tp,1
 554:	4289                	li	t0,2
 556:	fe5219e3          	bne	tp,t0,548 <test_30+0x2>
 55a:	4ee5                	li	t4,25
 55c:	4e79                	li	t3,30
 55e:	0dd19463          	bne	gp,t4,626 <fail>

00000562 <test_31>:
 562:	4201                	li	tp,0
 564:	412d                	li	sp,11
 566:	40bd                	li	ra,15
 568:	0001                	nop
 56a:	0001                	nop
 56c:	002081b3          	add	gp,ra,sp
 570:	0205                	addi	tp,tp,1
 572:	4289                	li	t0,2
 574:	fe5218e3          	bne	tp,t0,564 <test_31+0x2>
 578:	4ee9                	li	t4,26
 57a:	4e7d                	li	t3,31
 57c:	0bd19563          	bne	gp,t4,626 <fail>

00000580 <test_32>:
 580:	4201                	li	tp,0
 582:	412d                	li	sp,11
 584:	0001                	nop
 586:	40b5                	li	ra,13
 588:	002081b3          	add	gp,ra,sp
 58c:	0205                	addi	tp,tp,1
 58e:	4289                	li	t0,2
 590:	fe5219e3          	bne	tp,t0,582 <test_32+0x2>
 594:	4ee1                	li	t4,24
 596:	02000e13          	li	t3,32
 59a:	09d19663          	bne	gp,t4,626 <fail>

0000059e <test_33>:
 59e:	4201                	li	tp,0
 5a0:	412d                	li	sp,11
 5a2:	0001                	nop
 5a4:	40b9                	li	ra,14
 5a6:	0001                	nop
 5a8:	002081b3          	add	gp,ra,sp
 5ac:	0205                	addi	tp,tp,1
 5ae:	4289                	li	t0,2
 5b0:	fe5218e3          	bne	tp,t0,5a0 <test_33+0x2>
 5b4:	4ee5                	li	t4,25
 5b6:	02100e13          	li	t3,33
 5ba:	07d19663          	bne	gp,t4,626 <fail>

000005be <test_34>:
 5be:	4201                	li	tp,0
 5c0:	412d                	li	sp,11
 5c2:	0001                	nop
 5c4:	0001                	nop
 5c6:	40bd                	li	ra,15
 5c8:	002081b3          	add	gp,ra,sp
 5cc:	0205                	addi	tp,tp,1
 5ce:	4289                	li	t0,2
 5d0:	fe5218e3          	bne	tp,t0,5c0 <test_34+0x2>
 5d4:	4ee9                	li	t4,26
 5d6:	02200e13          	li	t3,34
 5da:	05d19663          	bne	gp,t4,626 <fail>

000005de <test_35>:
 5de:	40bd                	li	ra,15
 5e0:	00100133          	add	sp,zero,ra
 5e4:	4ebd                	li	t4,15
 5e6:	02300e13          	li	t3,35
 5ea:	03d11e63          	bne	sp,t4,626 <fail>

000005ee <test_36>:
 5ee:	02000093          	li	ra,32
 5f2:	00008133          	add	sp,ra,zero
 5f6:	02000e93          	li	t4,32
 5fa:	02400e13          	li	t3,36
 5fe:	03d11463          	bne	sp,t4,626 <fail>

00000602 <test_37>:
 602:	000000b3          	add	ra,zero,zero
 606:	4e81                	li	t4,0
 608:	02500e13          	li	t3,37
 60c:	01d09d63          	bne	ra,t4,626 <fail>

00000610 <test_38>:
 610:	40c1                	li	ra,16
 612:	4179                	li	sp,30
 614:	00208033          	add	zero,ra,sp
 618:	4e81                	li	t4,0
 61a:	02600e13          	li	t3,38
 61e:	01d01463          	bne	zero,t4,626 <fail>
 622:	01c01863          	bne	zero,t3,632 <pass>

00000626 <fail>:
 626:	0ff0000f          	fence
 62a:	85f2                	mv	a1,t3
 62c:	4505                	li	a0,1
 62e:	00000073          	ecall

00000632 <pass>:
 632:	0ff0000f          	fence
 636:	85f2                	mv	a1,t3
 638:	4501                	li	a0,0
 63a:	00000073          	ecall

0000063e <ecall>:
 63e:	00000073          	ecall
	...

00000660 <sc_exit>:
 660:	a95ff06f          	j	f4 <SIM_EXIT>
 664:	00000013          	nop
 668:	00000013          	nop
 66c:	00000013          	nop
 670:	00000013          	nop
 674:	00000013          	nop
 678:	00000013          	nop
 67c:	00000013          	nop
	...

Disassembly of section .tohost:

000006c0 <tohost>:
	...

00000700 <fromhost>:
	...
