
/media/sf_virtualbox_shared/scr1_opensource/build/bne.elf:     file format elf32-littleriscv


Disassembly of section .text.init:

00000000 <SIM_EXIT-0xf4>:
	...

000000f4 <SIM_EXIT>:
  f4:	00000013          	nop

000000f8 <SIM_STOP>:
  f8:	0000006f          	j	f8 <SIM_STOP>
  fc:	ffff                	0xffff
  fe:	ffff                	0xffff
	...

000001c0 <trap_vector>:
 1c0:	34202f73          	csrr	t5,mcause
 1c4:	4fa1                	li	t6,8
 1c6:	03ff0563          	beq	t5,t6,1f0 <_report>
 1ca:	4fa5                	li	t6,9
 1cc:	03ff0263          	beq	t5,t6,1f0 <_report>
 1d0:	4fad                	li	t6,11
 1d2:	01ff0f63          	beq	t5,t6,1f0 <_report>
 1d6:	00000f17          	auipc	t5,0x0
 1da:	e2af0f13          	addi	t5,t5,-470 # 0 <CL_SIZE-0x20>
 1de:	000f0363          	beqz	t5,1e4 <trap_vector+0x24>
 1e2:	8f02                	jr	t5
 1e4:	34202f73          	csrr	t5,mcause
 1e8:	000f5363          	bgez	t5,1ee <handle_exception>
 1ec:	a009                	j	1ee <handle_exception>

000001ee <handle_exception>:
 1ee:	4505                	li	a0,1

000001f0 <_report>:
 1f0:	2b00006f          	j	4a0 <sc_exit>
 1f4:	00000013          	nop
 1f8:	00000013          	nop
 1fc:	00000013          	nop

00000200 <_start>:
 200:	f1402573          	csrr	a0,mhartid
 204:	e101                	bnez	a0,204 <_start+0x4>
 206:	4e01                	li	t3,0
 208:	00000297          	auipc	t0,0x0
 20c:	fb828293          	addi	t0,t0,-72 # 1c0 <trap_vector>
 210:	30529073          	csrw	mtvec,t0
 214:	4505                	li	a0,1
 216:	057e                	slli	a0,a0,0x1f
 218:	00054863          	bltz	a0,228 <_start+0x28>
 21c:	0ff0000f          	fence
 220:	85f2                	mv	a1,t3
 222:	4501                	li	a0,0
 224:	00000073          	ecall
 228:	00000297          	auipc	t0,0x0
 22c:	dd828293          	addi	t0,t0,-552 # 0 <CL_SIZE-0x20>
 230:	00028e63          	beqz	t0,24c <_start+0x4c>
 234:	10529073          	csrw	stvec,t0
 238:	0000b2b7          	lui	t0,0xb
 23c:	10928293          	addi	t0,t0,265 # b109 <_gp+0xa3c1>
 240:	30229073          	csrw	medeleg,t0
 244:	30202373          	csrr	t1,medeleg
 248:	fa6293e3          	bne	t0,t1,1ee <handle_exception>
 24c:	30005073          	csrwi	mstatus,0
 250:	00000297          	auipc	t0,0x0
 254:	05028293          	addi	t0,t0,80 # 2a0 <_run_test>
 258:	34129073          	csrw	mepc,t0
 25c:	f1402573          	csrr	a0,mhartid
 260:	30200073          	mret
	...

Disassembly of section .text:

000002a0 <_run_test>:
 2a0:	4e09                	li	t3,2
 2a2:	4081                	li	ra,0
 2a4:	4105                	li	sp,1
 2a6:	00209663          	bne	ra,sp,2b2 <_run_test+0x12>
 2aa:	1dc01763          	bne	zero,t3,478 <fail>
 2ae:	01c01663          	bne	zero,t3,2ba <test_3>
 2b2:	fe209ee3          	bne	ra,sp,2ae <_run_test+0xe>
 2b6:	1dc01163          	bne	zero,t3,478 <fail>

000002ba <test_3>:
 2ba:	4e0d                	li	t3,3
 2bc:	4085                	li	ra,1
 2be:	4101                	li	sp,0
 2c0:	00209663          	bne	ra,sp,2cc <test_3+0x12>
 2c4:	1bc01a63          	bne	zero,t3,478 <fail>
 2c8:	01c01663          	bne	zero,t3,2d4 <test_4>
 2cc:	fe209ee3          	bne	ra,sp,2c8 <test_3+0xe>
 2d0:	1bc01463          	bne	zero,t3,478 <fail>

000002d4 <test_4>:
 2d4:	4e11                	li	t3,4
 2d6:	50fd                	li	ra,-1
 2d8:	4105                	li	sp,1
 2da:	00209663          	bne	ra,sp,2e6 <test_4+0x12>
 2de:	19c01d63          	bne	zero,t3,478 <fail>
 2e2:	01c01663          	bne	zero,t3,2ee <test_5>
 2e6:	fe209ee3          	bne	ra,sp,2e2 <test_4+0xe>
 2ea:	19c01763          	bne	zero,t3,478 <fail>

000002ee <test_5>:
 2ee:	4e15                	li	t3,5
 2f0:	4085                	li	ra,1
 2f2:	517d                	li	sp,-1
 2f4:	00209663          	bne	ra,sp,300 <test_5+0x12>
 2f8:	19c01063          	bne	zero,t3,478 <fail>
 2fc:	01c01663          	bne	zero,t3,308 <test_6>
 300:	fe209ee3          	bne	ra,sp,2fc <test_5+0xe>
 304:	17c01a63          	bne	zero,t3,478 <fail>

00000308 <test_6>:
 308:	4e19                	li	t3,6
 30a:	4081                	li	ra,0
 30c:	4101                	li	sp,0
 30e:	00209463          	bne	ra,sp,316 <test_6+0xe>
 312:	01c01463          	bne	zero,t3,31a <test_6+0x12>
 316:	17c01163          	bne	zero,t3,478 <fail>
 31a:	fe209ee3          	bne	ra,sp,316 <test_6+0xe>

0000031e <test_7>:
 31e:	4e1d                	li	t3,7
 320:	4085                	li	ra,1
 322:	4105                	li	sp,1
 324:	00209463          	bne	ra,sp,32c <test_7+0xe>
 328:	01c01463          	bne	zero,t3,330 <test_7+0x12>
 32c:	15c01663          	bne	zero,t3,478 <fail>
 330:	fe209ee3          	bne	ra,sp,32c <test_7+0xe>

00000334 <test_8>:
 334:	4e21                	li	t3,8
 336:	50fd                	li	ra,-1
 338:	517d                	li	sp,-1
 33a:	00209463          	bne	ra,sp,342 <test_8+0xe>
 33e:	01c01463          	bne	zero,t3,346 <test_8+0x12>
 342:	13c01b63          	bne	zero,t3,478 <fail>
 346:	fe209ee3          	bne	ra,sp,342 <test_8+0xe>

0000034a <test_9>:
 34a:	4e25                	li	t3,9
 34c:	4201                	li	tp,0
 34e:	4081                	li	ra,0
 350:	4101                	li	sp,0
 352:	12209363          	bne	ra,sp,478 <fail>
 356:	0205                	addi	tp,tp,1
 358:	4289                	li	t0,2
 35a:	fe521ae3          	bne	tp,t0,34e <test_9+0x4>

0000035e <test_10>:
 35e:	4e29                	li	t3,10
 360:	4201                	li	tp,0
 362:	4081                	li	ra,0
 364:	4101                	li	sp,0
 366:	0001                	nop
 368:	10209863          	bne	ra,sp,478 <fail>
 36c:	0205                	addi	tp,tp,1
 36e:	4289                	li	t0,2
 370:	fe5219e3          	bne	tp,t0,362 <test_10+0x4>

00000374 <test_11>:
 374:	4e2d                	li	t3,11
 376:	4201                	li	tp,0
 378:	4081                	li	ra,0
 37a:	4101                	li	sp,0
 37c:	0001                	nop
 37e:	0001                	nop
 380:	0e209c63          	bne	ra,sp,478 <fail>
 384:	0205                	addi	tp,tp,1
 386:	4289                	li	t0,2
 388:	fe5218e3          	bne	tp,t0,378 <test_11+0x4>

0000038c <test_12>:
 38c:	4e31                	li	t3,12
 38e:	4201                	li	tp,0
 390:	4081                	li	ra,0
 392:	0001                	nop
 394:	4101                	li	sp,0
 396:	0e209163          	bne	ra,sp,478 <fail>
 39a:	0205                	addi	tp,tp,1
 39c:	4289                	li	t0,2
 39e:	fe5219e3          	bne	tp,t0,390 <test_12+0x4>

000003a2 <test_13>:
 3a2:	4e35                	li	t3,13
 3a4:	4201                	li	tp,0
 3a6:	4081                	li	ra,0
 3a8:	0001                	nop
 3aa:	4101                	li	sp,0
 3ac:	0001                	nop
 3ae:	0c209563          	bne	ra,sp,478 <fail>
 3b2:	0205                	addi	tp,tp,1
 3b4:	4289                	li	t0,2
 3b6:	fe5218e3          	bne	tp,t0,3a6 <test_13+0x4>

000003ba <test_14>:
 3ba:	4e39                	li	t3,14
 3bc:	4201                	li	tp,0
 3be:	4081                	li	ra,0
 3c0:	0001                	nop
 3c2:	0001                	nop
 3c4:	4101                	li	sp,0
 3c6:	0a209963          	bne	ra,sp,478 <fail>
 3ca:	0205                	addi	tp,tp,1
 3cc:	4289                	li	t0,2
 3ce:	fe5218e3          	bne	tp,t0,3be <test_14+0x4>

000003d2 <test_15>:
 3d2:	4e3d                	li	t3,15
 3d4:	4201                	li	tp,0
 3d6:	4081                	li	ra,0
 3d8:	4101                	li	sp,0
 3da:	08209f63          	bne	ra,sp,478 <fail>
 3de:	0205                	addi	tp,tp,1
 3e0:	4289                	li	t0,2
 3e2:	fe521ae3          	bne	tp,t0,3d6 <test_15+0x4>

000003e6 <test_16>:
 3e6:	4e41                	li	t3,16
 3e8:	4201                	li	tp,0
 3ea:	4081                	li	ra,0
 3ec:	4101                	li	sp,0
 3ee:	0001                	nop
 3f0:	08209463          	bne	ra,sp,478 <fail>
 3f4:	0205                	addi	tp,tp,1
 3f6:	4289                	li	t0,2
 3f8:	fe5219e3          	bne	tp,t0,3ea <test_16+0x4>

000003fc <test_17>:
 3fc:	4e45                	li	t3,17
 3fe:	4201                	li	tp,0
 400:	4081                	li	ra,0
 402:	4101                	li	sp,0
 404:	0001                	nop
 406:	0001                	nop
 408:	06209863          	bne	ra,sp,478 <fail>
 40c:	0205                	addi	tp,tp,1
 40e:	4289                	li	t0,2
 410:	fe5218e3          	bne	tp,t0,400 <STACK_SIZE>

00000414 <test_18>:
 414:	4e49                	li	t3,18
 416:	4201                	li	tp,0
 418:	4081                	li	ra,0
 41a:	0001                	nop
 41c:	4101                	li	sp,0
 41e:	04209d63          	bne	ra,sp,478 <fail>
 422:	0205                	addi	tp,tp,1
 424:	4289                	li	t0,2
 426:	fe5219e3          	bne	tp,t0,418 <test_18+0x4>

0000042a <test_19>:
 42a:	4e4d                	li	t3,19
 42c:	4201                	li	tp,0
 42e:	4081                	li	ra,0
 430:	0001                	nop
 432:	4101                	li	sp,0
 434:	0001                	nop
 436:	04209163          	bne	ra,sp,478 <fail>
 43a:	0205                	addi	tp,tp,1
 43c:	4289                	li	t0,2
 43e:	fe5218e3          	bne	tp,t0,42e <test_19+0x4>

00000442 <test_20>:
 442:	4e51                	li	t3,20
 444:	4201                	li	tp,0
 446:	4081                	li	ra,0
 448:	0001                	nop
 44a:	0001                	nop
 44c:	4101                	li	sp,0
 44e:	02209563          	bne	ra,sp,478 <fail>
 452:	0205                	addi	tp,tp,1
 454:	4289                	li	t0,2
 456:	fe5218e3          	bne	tp,t0,446 <test_20+0x4>

0000045a <test_21>:
 45a:	4085                	li	ra,1
 45c:	00009663          	bnez	ra,468 <test_21+0xe>
 460:	0085                	addi	ra,ra,1
 462:	0085                	addi	ra,ra,1
 464:	0085                	addi	ra,ra,1
 466:	0085                	addi	ra,ra,1
 468:	0085                	addi	ra,ra,1
 46a:	0085                	addi	ra,ra,1
 46c:	4e8d                	li	t4,3
 46e:	4e55                	li	t3,21
 470:	01d09463          	bne	ra,t4,478 <fail>
 474:	01c01863          	bne	zero,t3,484 <pass>

00000478 <fail>:
 478:	0ff0000f          	fence
 47c:	85f2                	mv	a1,t3
 47e:	4505                	li	a0,1
 480:	00000073          	ecall

00000484 <pass>:
 484:	0ff0000f          	fence
 488:	85f2                	mv	a1,t3
 48a:	4501                	li	a0,0
 48c:	00000073          	ecall

00000490 <ecall>:
 490:	00000073          	ecall
	...

000004a0 <sc_exit>:
 4a0:	c55ff06f          	j	f4 <SIM_EXIT>
 4a4:	00000013          	nop
 4a8:	00000013          	nop
 4ac:	00000013          	nop
 4b0:	00000013          	nop
 4b4:	00000013          	nop
 4b8:	00000013          	nop
 4bc:	00000013          	nop
	...

Disassembly of section .tohost:

00000500 <tohost>:
	...

00000540 <fromhost>:
	...
