
/media/sf_virtualbox_shared/scr1_opensource/build/csr.elf:     file format elf32-littleriscv


Disassembly of section .text.init:

00000000 <SIM_EXIT-0xf4>:
	...

000000f4 <SIM_EXIT>:
  f4:	00000013          	nop

000000f8 <SIM_STOP>:
  f8:	0000006f          	j	f8 <SIM_STOP>
  fc:	ffff                	0xffff
  fe:	ffff                	0xffff
	...

000001c0 <trap_vector>:
 1c0:	34202f73          	csrr	t5,mcause
 1c4:	4fa1                	li	t6,8
 1c6:	03ff0563          	beq	t5,t6,1f0 <_report>
 1ca:	4fa5                	li	t6,9
 1cc:	03ff0263          	beq	t5,t6,1f0 <_report>
 1d0:	4fad                	li	t6,11
 1d2:	01ff0f63          	beq	t5,t6,1f0 <_report>
 1d6:	00000f17          	auipc	t5,0x0
 1da:	1f6f0f13          	addi	t5,t5,502 # 3cc <mtvec_handler>
 1de:	000f0363          	beqz	t5,1e4 <trap_vector+0x24>
 1e2:	8f02                	jr	t5
 1e4:	34202f73          	csrr	t5,mcause
 1e8:	000f5363          	bgez	t5,1ee <handle_exception>
 1ec:	a009                	j	1ee <handle_exception>

000001ee <handle_exception>:
 1ee:	4505                	li	a0,1

000001f0 <_report>:
 1f0:	2300006f          	j	420 <sc_exit>
 1f4:	00000013          	nop
 1f8:	00000013          	nop
 1fc:	00000013          	nop

00000200 <_start>:
 200:	f1402573          	csrr	a0,mhartid
 204:	e101                	bnez	a0,204 <_start+0x4>
 206:	4e01                	li	t3,0
 208:	00000297          	auipc	t0,0x0
 20c:	fb828293          	addi	t0,t0,-72 # 1c0 <trap_vector>
 210:	30529073          	csrw	mtvec,t0
 214:	4505                	li	a0,1
 216:	057e                	slli	a0,a0,0x1f
 218:	00054863          	bltz	a0,228 <_start+0x28>
 21c:	0ff0000f          	fence
 220:	85f2                	mv	a1,t3
 222:	4501                	li	a0,0
 224:	00000073          	ecall
 228:	00000297          	auipc	t0,0x0
 22c:	dd828293          	addi	t0,t0,-552 # 0 <CL_SIZE-0x20>
 230:	00028e63          	beqz	t0,24c <_start+0x4c>
 234:	10529073          	csrw	stvec,t0
 238:	0000b2b7          	lui	t0,0xb
 23c:	10928293          	addi	t0,t0,265 # b109 <_gp+0xa441>
 240:	30229073          	csrw	medeleg,t0
 244:	30202373          	csrr	t1,medeleg
 248:	fa6293e3          	bne	t0,t1,1ee <handle_exception>
 24c:	30005073          	csrwi	mstatus,0
 250:	00002537          	lui	a0,0x2
 254:	80050513          	addi	a0,a0,-2048 # 1800 <_gp+0xb38>
 258:	30052073          	csrs	mstatus,a0
 25c:	00000297          	auipc	t0,0x0
 260:	04428293          	addi	t0,t0,68 # 2a0 <_run_test>
 264:	34129073          	csrw	mepc,t0
 268:	f1402573          	csrr	a0,mhartid
 26c:	30200073          	mret
	...

Disassembly of section .text:

000002a0 <_run_test>:
 2a0:	3401d073          	csrwi	mscratch,3

000002a4 <test_2>:
 2a4:	34002573          	csrr	a0,mscratch
 2a8:	4e8d                	li	t4,3
 2aa:	4e09                	li	t3,2
 2ac:	11d51463          	bne	a0,t4,3b4 <fail>

000002b0 <test_3>:
 2b0:	3400f5f3          	csrrci	a1,mscratch,1
 2b4:	4e8d                	li	t4,3
 2b6:	4e0d                	li	t3,3
 2b8:	0fd59e63          	bne	a1,t4,3b4 <fail>

000002bc <test_4>:
 2bc:	34026673          	csrrsi	a2,mscratch,4
 2c0:	4e89                	li	t4,2
 2c2:	4e11                	li	t3,4
 2c4:	0fd61863          	bne	a2,t4,3b4 <fail>

000002c8 <test_5>:
 2c8:	340156f3          	csrrwi	a3,mscratch,2
 2cc:	4e99                	li	t4,6
 2ce:	4e15                	li	t3,5
 2d0:	0fd69263          	bne	a3,t4,3b4 <fail>

000002d4 <test_6>:
 2d4:	0bad2537          	lui	a0,0xbad2
 2d8:	dea50513          	addi	a0,a0,-534 # bad1dea <_gp+0xbad1122>
 2dc:	340515f3          	csrrw	a1,mscratch,a0
 2e0:	4e89                	li	t4,2
 2e2:	4e19                	li	t3,6
 2e4:	0dd59863          	bne	a1,t4,3b4 <fail>

000002e8 <test_7>:
 2e8:	00002537          	lui	a0,0x2
 2ec:	dea50513          	addi	a0,a0,-534 # 1dea <_gp+0x1122>
 2f0:	34053573          	csrrc	a0,mscratch,a0
 2f4:	0bad2eb7          	lui	t4,0xbad2
 2f8:	deae8e93          	addi	t4,t4,-534 # bad1dea <_gp+0xbad1122>
 2fc:	4e1d                	li	t3,7
 2fe:	0bd51b63          	bne	a0,t4,3b4 <fail>

00000302 <test_8>:
 302:	0000c537          	lui	a0,0xc
 306:	eef50513          	addi	a0,a0,-273 # beef <_gp+0xb227>
 30a:	34052573          	csrrs	a0,mscratch,a0
 30e:	0bad0eb7          	lui	t4,0xbad0
 312:	4e21                	li	t3,8
 314:	0bd51063          	bne	a0,t4,3b4 <fail>

00000318 <test_9>:
 318:	34002573          	csrr	a0,mscratch
 31c:	0badceb7          	lui	t4,0xbadc
 320:	eefe8e93          	addi	t4,t4,-273 # badbeef <_gp+0xbadb227>
 324:	4e25                	li	t3,9
 326:	09d51763          	bne	a0,t4,3b4 <fail>
 32a:	30102573          	csrr	a0,misa
 32e:	02057513          	andi	a0,a0,32
 332:	c505                	beqz	a0,35a <test_10+0x10>
 334:	6599                	lui	a1,0x6
 336:	3005a073          	csrs	mstatus,a1
 33a:	f0000053          	fmv.s.x	ft0,zero
 33e:	3005b073          	csrc	mstatus,a1
 342:	00000597          	auipc	a1,0x0
 346:	11e58593          	addi	a1,a1,286 # 460 <begin_signature>

0000034a <test_10>:
 34a:	0005a027          	fsw	ft0,0(a1)
 34e:	0005a503          	lw	a0,0(a1)
 352:	4e85                	li	t4,1
 354:	4e29                	li	t3,10
 356:	05d51f63          	bne	a0,t4,3b4 <fail>
 35a:	30102573          	csrr	a0,misa
 35e:	8151                	srli	a0,a0,0x14
 360:	8905                	andi	a0,a0,1
 362:	c129                	beqz	a0,3a4 <finish>
 364:	000022b7          	lui	t0,0x2
 368:	80028293          	addi	t0,t0,-2048 # 1800 <_gp+0xb38>
 36c:	3002b073          	csrc	mstatus,t0
 370:	00000297          	auipc	t0,0x0
 374:	01028293          	addi	t0,t0,16 # 380 <test_11>
 378:	34129073          	csrw	mepc,t0
 37c:	30200073          	mret

00000380 <test_11>:
 380:	0ff00513          	li	a0,255
 384:	c0001573          	csrrw	a0,cycle,zero
 388:	0ff00e93          	li	t4,255
 38c:	4e2d                	li	t3,11
 38e:	03d51363          	bne	a0,t4,3b4 <fail>

00000392 <test_12>:
 392:	0ff00513          	li	a0,255
 396:	30002573          	csrr	a0,mstatus
 39a:	0ff00e93          	li	t4,255
 39e:	4e31                	li	t3,12
 3a0:	01d51a63          	bne	a0,t4,3b4 <fail>

000003a4 <finish>:
 3a4:	0ff0000f          	fence
 3a8:	85f2                	mv	a1,t3
 3aa:	4501                	li	a0,0
 3ac:	00000073          	ecall
 3b0:	01c01863          	bne	zero,t3,3c0 <pass>

000003b4 <fail>:
 3b4:	0ff0000f          	fence
 3b8:	85f2                	mv	a1,t3
 3ba:	4505                	li	a0,1
 3bc:	00000073          	ecall

000003c0 <pass>:
 3c0:	0ff0000f          	fence
 3c4:	85f2                	mv	a1,t3
 3c6:	4501                	li	a0,0
 3c8:	00000073          	ecall

000003cc <mtvec_handler>:
 3cc:	42a5                	li	t0,9
 3ce:	005e6563          	bltu	t3,t0,3d8 <mtvec_handler+0xc>
 3d2:	42ad                	li	t0,11
 3d4:	01c2fd63          	bleu	t3,t0,3ee <privileged>
 3d8:	342022f3          	csrr	t0,mcause
 3dc:	4321                	li	t1,8
 3de:	fc629be3          	bne	t0,t1,3b4 <fail>
 3e2:	0ff0000f          	fence
 3e6:	85f2                	mv	a1,t3
 3e8:	4501                	li	a0,0
 3ea:	00000073          	ecall

000003ee <privileged>:
 3ee:	342022f3          	csrr	t0,mcause
 3f2:	4309                	li	t1,2
 3f4:	fc6290e3          	bne	t0,t1,3b4 <fail>
 3f8:	341022f3          	csrr	t0,mepc
 3fc:	0291                	addi	t0,t0,4
 3fe:	34129073          	csrw	mepc,t0
 402:	30200073          	mret

00000406 <ecall>:
 406:	00000073          	ecall
	...

00000420 <sc_exit>:
 420:	cd5ff06f          	j	f4 <SIM_EXIT>
 424:	00000013          	nop
 428:	00000013          	nop
 42c:	00000013          	nop
 430:	00000013          	nop
 434:	00000013          	nop
 438:	00000013          	nop
 43c:	00000013          	nop
	...

Disassembly of section .tohost:

00000480 <tohost>:
	...

000004c0 <fromhost>:
	...
