
/media/sf_virtualbox_shared/scr1_opensource/build/lhu.elf:     file format elf32-littleriscv


Disassembly of section .text.init:

00000000 <SIM_EXIT-0xf4>:
	...

000000f4 <SIM_EXIT>:
  f4:	00000013          	nop

000000f8 <SIM_STOP>:
  f8:	0000006f          	j	f8 <SIM_STOP>
  fc:	ffff                	0xffff
  fe:	ffff                	0xffff
	...

000001c0 <trap_vector>:
 1c0:	34202f73          	csrr	t5,mcause
 1c4:	4fa1                	li	t6,8
 1c6:	03ff0563          	beq	t5,t6,1f0 <_report>
 1ca:	4fa5                	li	t6,9
 1cc:	03ff0263          	beq	t5,t6,1f0 <_report>
 1d0:	4fad                	li	t6,11
 1d2:	01ff0f63          	beq	t5,t6,1f0 <_report>
 1d6:	00000f17          	auipc	t5,0x0
 1da:	e2af0f13          	addi	t5,t5,-470 # 0 <CL_SIZE-0x20>
 1de:	000f0363          	beqz	t5,1e4 <trap_vector+0x24>
 1e2:	8f02                	jr	t5
 1e4:	34202f73          	csrr	t5,mcause
 1e8:	000f5363          	bgez	t5,1ee <handle_exception>
 1ec:	a009                	j	1ee <handle_exception>

000001ee <handle_exception>:
 1ee:	4505                	li	a0,1

000001f0 <_report>:
 1f0:	2f00006f          	j	4e0 <sc_exit>
 1f4:	00000013          	nop
 1f8:	00000013          	nop
 1fc:	00000013          	nop

00000200 <_start>:
 200:	f1402573          	csrr	a0,mhartid
 204:	e101                	bnez	a0,204 <_start+0x4>
 206:	4e01                	li	t3,0
 208:	00000297          	auipc	t0,0x0
 20c:	fb828293          	addi	t0,t0,-72 # 1c0 <trap_vector>
 210:	30529073          	csrw	mtvec,t0
 214:	4505                	li	a0,1
 216:	057e                	slli	a0,a0,0x1f
 218:	00054863          	bltz	a0,228 <_start+0x28>
 21c:	0ff0000f          	fence
 220:	85f2                	mv	a1,t3
 222:	4501                	li	a0,0
 224:	00000073          	ecall
 228:	00000297          	auipc	t0,0x0
 22c:	dd828293          	addi	t0,t0,-552 # 0 <CL_SIZE-0x20>
 230:	00028e63          	beqz	t0,24c <_start+0x4c>
 234:	10529073          	csrw	stvec,t0
 238:	0000b2b7          	lui	t0,0xb
 23c:	10928293          	addi	t0,t0,265 # b109 <_gp+0xa381>
 240:	30229073          	csrw	medeleg,t0
 244:	30202373          	csrr	t1,medeleg
 248:	fa6293e3          	bne	t0,t1,1ee <handle_exception>
 24c:	30005073          	csrwi	mstatus,0
 250:	00000297          	auipc	t0,0x0
 254:	05028293          	addi	t0,t0,80 # 2a0 <_run_test>
 258:	34129073          	csrw	mepc,t0
 25c:	f1402573          	csrr	a0,mhartid
 260:	30200073          	mret
	...

Disassembly of section .text:

000002a0 <_run_test>:
 2a0:	00000097          	auipc	ra,0x0
 2a4:	28008093          	addi	ra,ra,640 # 520 <begin_signature>
 2a8:	0000d183          	lhu	gp,0(ra)
 2ac:	0ff00e93          	li	t4,255
 2b0:	4e09                	li	t3,2
 2b2:	21d19663          	bne	gp,t4,4be <fail>

000002b6 <test_3>:
 2b6:	00000097          	auipc	ra,0x0
 2ba:	26a08093          	addi	ra,ra,618 # 520 <begin_signature>
 2be:	0020d183          	lhu	gp,2(ra)
 2c2:	00010eb7          	lui	t4,0x10
 2c6:	f00e8e93          	addi	t4,t4,-256 # ff00 <_gp+0xf178>
 2ca:	4e0d                	li	t3,3
 2cc:	1fd19963          	bne	gp,t4,4be <fail>

000002d0 <test_4>:
 2d0:	00000097          	auipc	ra,0x0
 2d4:	25008093          	addi	ra,ra,592 # 520 <begin_signature>
 2d8:	0040d183          	lhu	gp,4(ra)
 2dc:	00001eb7          	lui	t4,0x1
 2e0:	ff0e8e93          	addi	t4,t4,-16 # ff0 <_gp+0x268>
 2e4:	4e11                	li	t3,4
 2e6:	1dd19c63          	bne	gp,t4,4be <fail>

000002ea <test_5>:
 2ea:	00000097          	auipc	ra,0x0
 2ee:	23608093          	addi	ra,ra,566 # 520 <begin_signature>
 2f2:	0060d183          	lhu	gp,6(ra)
 2f6:	0000feb7          	lui	t4,0xf
 2fa:	00fe8e93          	addi	t4,t4,15 # f00f <_gp+0xe287>
 2fe:	4e15                	li	t3,5
 300:	1bd19f63          	bne	gp,t4,4be <fail>

00000304 <test_6>:
 304:	00000097          	auipc	ra,0x0
 308:	22208093          	addi	ra,ra,546 # 526 <tdat4>
 30c:	ffa0d183          	lhu	gp,-6(ra)
 310:	0ff00e93          	li	t4,255
 314:	4e19                	li	t3,6
 316:	1bd19463          	bne	gp,t4,4be <fail>

0000031a <test_7>:
 31a:	00000097          	auipc	ra,0x0
 31e:	20c08093          	addi	ra,ra,524 # 526 <tdat4>
 322:	ffc0d183          	lhu	gp,-4(ra)
 326:	00010eb7          	lui	t4,0x10
 32a:	f00e8e93          	addi	t4,t4,-256 # ff00 <_gp+0xf178>
 32e:	4e1d                	li	t3,7
 330:	19d19763          	bne	gp,t4,4be <fail>

00000334 <test_8>:
 334:	00000097          	auipc	ra,0x0
 338:	1f208093          	addi	ra,ra,498 # 526 <tdat4>
 33c:	ffe0d183          	lhu	gp,-2(ra)
 340:	00001eb7          	lui	t4,0x1
 344:	ff0e8e93          	addi	t4,t4,-16 # ff0 <_gp+0x268>
 348:	4e21                	li	t3,8
 34a:	17d19a63          	bne	gp,t4,4be <fail>

0000034e <test_9>:
 34e:	00000097          	auipc	ra,0x0
 352:	1d808093          	addi	ra,ra,472 # 526 <tdat4>
 356:	0000d183          	lhu	gp,0(ra)
 35a:	0000feb7          	lui	t4,0xf
 35e:	00fe8e93          	addi	t4,t4,15 # f00f <_gp+0xe287>
 362:	4e25                	li	t3,9
 364:	15d19d63          	bne	gp,t4,4be <fail>

00000368 <test_10>:
 368:	00000097          	auipc	ra,0x0
 36c:	1b808093          	addi	ra,ra,440 # 520 <begin_signature>
 370:	1081                	addi	ra,ra,-32
 372:	0200d283          	lhu	t0,32(ra)
 376:	0ff00e93          	li	t4,255
 37a:	4e29                	li	t3,10
 37c:	15d29163          	bne	t0,t4,4be <fail>

00000380 <test_11>:
 380:	00000097          	auipc	ra,0x0
 384:	1a008093          	addi	ra,ra,416 # 520 <begin_signature>
 388:	10ed                	addi	ra,ra,-5
 38a:	0070d283          	lhu	t0,7(ra)
 38e:	00010eb7          	lui	t4,0x10
 392:	f00e8e93          	addi	t4,t4,-256 # ff00 <_gp+0xf178>
 396:	4e2d                	li	t3,11
 398:	13d29363          	bne	t0,t4,4be <fail>

0000039c <test_12>:
 39c:	4e31                	li	t3,12
 39e:	4201                	li	tp,0
 3a0:	00000097          	auipc	ra,0x0
 3a4:	18208093          	addi	ra,ra,386 # 522 <tdat2>
 3a8:	0020d183          	lhu	gp,2(ra)
 3ac:	00018313          	mv	t1,gp
 3b0:	00001eb7          	lui	t4,0x1
 3b4:	ff0e8e93          	addi	t4,t4,-16 # ff0 <_gp+0x268>
 3b8:	11d31363          	bne	t1,t4,4be <fail>
 3bc:	0205                	addi	tp,tp,1
 3be:	4289                	li	t0,2
 3c0:	fe5210e3          	bne	tp,t0,3a0 <test_12+0x4>

000003c4 <test_13>:
 3c4:	4e35                	li	t3,13
 3c6:	4201                	li	tp,0
 3c8:	00000097          	auipc	ra,0x0
 3cc:	15c08093          	addi	ra,ra,348 # 524 <tdat3>
 3d0:	0020d183          	lhu	gp,2(ra)
 3d4:	0001                	nop
 3d6:	00018313          	mv	t1,gp
 3da:	0000feb7          	lui	t4,0xf
 3de:	00fe8e93          	addi	t4,t4,15 # f00f <_gp+0xe287>
 3e2:	0dd31e63          	bne	t1,t4,4be <fail>
 3e6:	0205                	addi	tp,tp,1
 3e8:	4289                	li	t0,2
 3ea:	fc521fe3          	bne	tp,t0,3c8 <test_13+0x4>

000003ee <test_14>:
 3ee:	4e39                	li	t3,14
 3f0:	4201                	li	tp,0
 3f2:	00000097          	auipc	ra,0x0
 3f6:	12e08093          	addi	ra,ra,302 # 520 <begin_signature>
 3fa:	0020d183          	lhu	gp,2(ra)
 3fe:	0001                	nop
 400:	0001                	nop
 402:	00018313          	mv	t1,gp
 406:	00010eb7          	lui	t4,0x10
 40a:	f00e8e93          	addi	t4,t4,-256 # ff00 <_gp+0xf178>
 40e:	0bd31863          	bne	t1,t4,4be <fail>
 412:	0205                	addi	tp,tp,1
 414:	4289                	li	t0,2
 416:	fc521ee3          	bne	tp,t0,3f2 <test_14+0x4>

0000041a <test_15>:
 41a:	4e3d                	li	t3,15
 41c:	4201                	li	tp,0
 41e:	00000097          	auipc	ra,0x0
 422:	10408093          	addi	ra,ra,260 # 522 <tdat2>
 426:	0020d183          	lhu	gp,2(ra)
 42a:	00001eb7          	lui	t4,0x1
 42e:	ff0e8e93          	addi	t4,t4,-16 # ff0 <_gp+0x268>
 432:	09d19663          	bne	gp,t4,4be <fail>
 436:	0205                	addi	tp,tp,1
 438:	4289                	li	t0,2
 43a:	fe5212e3          	bne	tp,t0,41e <test_15+0x4>

0000043e <test_16>:
 43e:	4e41                	li	t3,16
 440:	4201                	li	tp,0
 442:	00000097          	auipc	ra,0x0
 446:	0e208093          	addi	ra,ra,226 # 524 <tdat3>
 44a:	0001                	nop
 44c:	0020d183          	lhu	gp,2(ra)
 450:	0000feb7          	lui	t4,0xf
 454:	00fe8e93          	addi	t4,t4,15 # f00f <_gp+0xe287>
 458:	07d19363          	bne	gp,t4,4be <fail>
 45c:	0205                	addi	tp,tp,1
 45e:	4289                	li	t0,2
 460:	fe5211e3          	bne	tp,t0,442 <test_16+0x4>

00000464 <test_17>:
 464:	4e45                	li	t3,17
 466:	4201                	li	tp,0
 468:	00000097          	auipc	ra,0x0
 46c:	0b808093          	addi	ra,ra,184 # 520 <begin_signature>
 470:	0001                	nop
 472:	0001                	nop
 474:	0020d183          	lhu	gp,2(ra)
 478:	00010eb7          	lui	t4,0x10
 47c:	f00e8e93          	addi	t4,t4,-256 # ff00 <_gp+0xf178>
 480:	03d19f63          	bne	gp,t4,4be <fail>
 484:	0205                	addi	tp,tp,1
 486:	4289                	li	t0,2
 488:	fe5210e3          	bne	tp,t0,468 <test_17+0x4>

0000048c <test_18>:
 48c:	00000297          	auipc	t0,0x0
 490:	09428293          	addi	t0,t0,148 # 520 <begin_signature>
 494:	0002d103          	lhu	sp,0(t0)
 498:	4109                	li	sp,2
 49a:	4e89                	li	t4,2
 49c:	4e49                	li	t3,18
 49e:	03d11063          	bne	sp,t4,4be <fail>

000004a2 <test_19>:
 4a2:	00000297          	auipc	t0,0x0
 4a6:	07e28293          	addi	t0,t0,126 # 520 <begin_signature>
 4aa:	0002d103          	lhu	sp,0(t0)
 4ae:	0001                	nop
 4b0:	4109                	li	sp,2
 4b2:	4e89                	li	t4,2
 4b4:	4e4d                	li	t3,19
 4b6:	01d11463          	bne	sp,t4,4be <fail>
 4ba:	01c01863          	bne	zero,t3,4ca <pass>

000004be <fail>:
 4be:	0ff0000f          	fence
 4c2:	85f2                	mv	a1,t3
 4c4:	4505                	li	a0,1
 4c6:	00000073          	ecall

000004ca <pass>:
 4ca:	0ff0000f          	fence
 4ce:	85f2                	mv	a1,t3
 4d0:	4501                	li	a0,0
 4d2:	00000073          	ecall

000004d6 <ecall>:
 4d6:	00000073          	ecall
 4da:	0000                	unimp
 4dc:	0000                	unimp
	...

000004e0 <sc_exit>:
 4e0:	c15ff06f          	j	f4 <SIM_EXIT>
 4e4:	00000013          	nop
 4e8:	00000013          	nop
 4ec:	00000013          	nop
 4f0:	00000013          	nop
 4f4:	00000013          	nop
 4f8:	00000013          	nop
 4fc:	00000013          	nop
	...

Disassembly of section .tohost:

00000540 <tohost>:
	...

00000580 <fromhost>:
	...
