
/media/sf_virtualbox_shared/scr1_opensource/build/or.elf:     file format elf32-littleriscv


Disassembly of section .text.init:

00000000 <SIM_EXIT-0xf4>:
	...

000000f4 <SIM_EXIT>:
  f4:	00000013          	nop

000000f8 <SIM_STOP>:
  f8:	0000006f          	j	f8 <SIM_STOP>
  fc:	ffff                	0xffff
  fe:	ffff                	0xffff
	...

000001c0 <trap_vector>:
 1c0:	34202f73          	csrr	t5,mcause
 1c4:	4fa1                	li	t6,8
 1c6:	03ff0563          	beq	t5,t6,1f0 <_report>
 1ca:	4fa5                	li	t6,9
 1cc:	03ff0263          	beq	t5,t6,1f0 <_report>
 1d0:	4fad                	li	t6,11
 1d2:	01ff0f63          	beq	t5,t6,1f0 <_report>
 1d6:	00000f17          	auipc	t5,0x0
 1da:	e2af0f13          	addi	t5,t5,-470 # 0 <CL_SIZE-0x20>
 1de:	000f0363          	beqz	t5,1e4 <trap_vector+0x24>
 1e2:	8f02                	jr	t5
 1e4:	34202f73          	csrr	t5,mcause
 1e8:	000f5363          	bgez	t5,1ee <handle_exception>
 1ec:	a009                	j	1ee <handle_exception>

000001ee <handle_exception>:
 1ee:	4505                	li	a0,1

000001f0 <_report>:
 1f0:	4f00006f          	j	6e0 <sc_exit>
 1f4:	00000013          	nop
 1f8:	00000013          	nop
 1fc:	00000013          	nop

00000200 <_start>:
 200:	f1402573          	csrr	a0,mhartid
 204:	e101                	bnez	a0,204 <_start+0x4>
 206:	4e01                	li	t3,0
 208:	00000297          	auipc	t0,0x0
 20c:	fb828293          	addi	t0,t0,-72 # 1c0 <trap_vector>
 210:	30529073          	csrw	mtvec,t0
 214:	4505                	li	a0,1
 216:	057e                	slli	a0,a0,0x1f
 218:	00054863          	bltz	a0,228 <_start+0x28>
 21c:	0ff0000f          	fence
 220:	85f2                	mv	a1,t3
 222:	4501                	li	a0,0
 224:	00000073          	ecall
 228:	00000297          	auipc	t0,0x0
 22c:	dd828293          	addi	t0,t0,-552 # 0 <CL_SIZE-0x20>
 230:	00028e63          	beqz	t0,24c <_start+0x4c>
 234:	10529073          	csrw	stvec,t0
 238:	0000b2b7          	lui	t0,0xb
 23c:	10928293          	addi	t0,t0,265 # b109 <_gp+0xa181>
 240:	30229073          	csrw	medeleg,t0
 244:	30202373          	csrr	t1,medeleg
 248:	fa6293e3          	bne	t0,t1,1ee <handle_exception>
 24c:	30005073          	csrwi	mstatus,0
 250:	00000297          	auipc	t0,0x0
 254:	05028293          	addi	t0,t0,80 # 2a0 <_run_test>
 258:	34129073          	csrw	mepc,t0
 25c:	f1402573          	csrr	a0,mhartid
 260:	30200073          	mret
	...

Disassembly of section .text:

000002a0 <_run_test>:
 2a0:	ff0100b7          	lui	ra,0xff010
 2a4:	f0008093          	addi	ra,ra,-256 # ff00ff00 <_gp+0xff00ef78>
 2a8:	0f0f1137          	lui	sp,0xf0f1
 2ac:	f0f10113          	addi	sp,sp,-241 # f0f0f0f <_gp+0xf0eff87>
 2b0:	0020e1b3          	or	gp,ra,sp
 2b4:	ff100eb7          	lui	t4,0xff100
 2b8:	f0fe8e93          	addi	t4,t4,-241 # ff0fff0f <_gp+0xff0fef87>
 2bc:	4e09                	li	t3,2
 2be:	3fd19763          	bne	gp,t4,6ac <fail>

000002c2 <test_3>:
 2c2:	0ff010b7          	lui	ra,0xff01
 2c6:	ff008093          	addi	ra,ra,-16 # ff00ff0 <_gp+0xff00068>
 2ca:	f0f0f137          	lui	sp,0xf0f0f
 2ce:	0f010113          	addi	sp,sp,240 # f0f0f0f0 <_gp+0xf0f0e168>
 2d2:	0020e1b3          	or	gp,ra,sp
 2d6:	fff10eb7          	lui	t4,0xfff10
 2da:	ff0e8e93          	addi	t4,t4,-16 # fff0fff0 <_gp+0xfff0f068>
 2de:	4e0d                	li	t3,3
 2e0:	3dd19663          	bne	gp,t4,6ac <fail>

000002e4 <test_4>:
 2e4:	00ff00b7          	lui	ra,0xff0
 2e8:	0ff08093          	addi	ra,ra,255 # ff00ff <_gp+0xfef177>
 2ec:	0f0f1137          	lui	sp,0xf0f1
 2f0:	f0f10113          	addi	sp,sp,-241 # f0f0f0f <_gp+0xf0eff87>
 2f4:	0020e1b3          	or	gp,ra,sp
 2f8:	0fff1eb7          	lui	t4,0xfff1
 2fc:	fffe8e93          	addi	t4,t4,-1 # fff0fff <_gp+0xfff0077>
 300:	4e11                	li	t3,4
 302:	3bd19563          	bne	gp,t4,6ac <fail>

00000306 <test_5>:
 306:	f00ff0b7          	lui	ra,0xf00ff
 30a:	00f08093          	addi	ra,ra,15 # f00ff00f <_gp+0xf00fe087>
 30e:	f0f0f137          	lui	sp,0xf0f0f
 312:	0f010113          	addi	sp,sp,240 # f0f0f0f0 <_gp+0xf0f0e168>
 316:	0020e1b3          	or	gp,ra,sp
 31a:	f0fffeb7          	lui	t4,0xf0fff
 31e:	0ffe8e93          	addi	t4,t4,255 # f0fff0ff <_gp+0xf0ffe177>
 322:	4e15                	li	t3,5
 324:	39d19463          	bne	gp,t4,6ac <fail>

00000328 <test_6>:
 328:	ff0100b7          	lui	ra,0xff010
 32c:	f0008093          	addi	ra,ra,-256 # ff00ff00 <_gp+0xff00ef78>
 330:	0f0f1137          	lui	sp,0xf0f1
 334:	f0f10113          	addi	sp,sp,-241 # f0f0f0f <_gp+0xf0eff87>
 338:	0020e0b3          	or	ra,ra,sp
 33c:	ff100eb7          	lui	t4,0xff100
 340:	f0fe8e93          	addi	t4,t4,-241 # ff0fff0f <_gp+0xff0fef87>
 344:	4e19                	li	t3,6
 346:	37d09363          	bne	ra,t4,6ac <fail>

0000034a <test_7>:
 34a:	ff0100b7          	lui	ra,0xff010
 34e:	f0008093          	addi	ra,ra,-256 # ff00ff00 <_gp+0xff00ef78>
 352:	0f0f1137          	lui	sp,0xf0f1
 356:	f0f10113          	addi	sp,sp,-241 # f0f0f0f <_gp+0xf0eff87>
 35a:	0020e133          	or	sp,ra,sp
 35e:	ff100eb7          	lui	t4,0xff100
 362:	f0fe8e93          	addi	t4,t4,-241 # ff0fff0f <_gp+0xff0fef87>
 366:	4e1d                	li	t3,7
 368:	35d11263          	bne	sp,t4,6ac <fail>

0000036c <test_8>:
 36c:	ff0100b7          	lui	ra,0xff010
 370:	f0008093          	addi	ra,ra,-256 # ff00ff00 <_gp+0xff00ef78>
 374:	0010e0b3          	or	ra,ra,ra
 378:	ff010eb7          	lui	t4,0xff010
 37c:	f00e8e93          	addi	t4,t4,-256 # ff00ff00 <_gp+0xff00ef78>
 380:	4e21                	li	t3,8
 382:	33d09563          	bne	ra,t4,6ac <fail>

00000386 <test_9>:
 386:	4201                	li	tp,0
 388:	ff0100b7          	lui	ra,0xff010
 38c:	f0008093          	addi	ra,ra,-256 # ff00ff00 <_gp+0xff00ef78>
 390:	0f0f1137          	lui	sp,0xf0f1
 394:	f0f10113          	addi	sp,sp,-241 # f0f0f0f <_gp+0xf0eff87>
 398:	0020e1b3          	or	gp,ra,sp
 39c:	00018313          	mv	t1,gp
 3a0:	0205                	addi	tp,tp,1
 3a2:	4289                	li	t0,2
 3a4:	fe5212e3          	bne	tp,t0,388 <test_9+0x2>
 3a8:	ff100eb7          	lui	t4,0xff100
 3ac:	f0fe8e93          	addi	t4,t4,-241 # ff0fff0f <_gp+0xff0fef87>
 3b0:	4e25                	li	t3,9
 3b2:	2fd31d63          	bne	t1,t4,6ac <fail>

000003b6 <test_10>:
 3b6:	4201                	li	tp,0
 3b8:	0ff010b7          	lui	ra,0xff01
 3bc:	ff008093          	addi	ra,ra,-16 # ff00ff0 <_gp+0xff00068>
 3c0:	f0f0f137          	lui	sp,0xf0f0f
 3c4:	0f010113          	addi	sp,sp,240 # f0f0f0f0 <_gp+0xf0f0e168>
 3c8:	0020e1b3          	or	gp,ra,sp
 3cc:	0001                	nop
 3ce:	00018313          	mv	t1,gp
 3d2:	0205                	addi	tp,tp,1
 3d4:	4289                	li	t0,2
 3d6:	fe5211e3          	bne	tp,t0,3b8 <test_10+0x2>
 3da:	fff10eb7          	lui	t4,0xfff10
 3de:	ff0e8e93          	addi	t4,t4,-16 # fff0fff0 <_gp+0xfff0f068>
 3e2:	4e29                	li	t3,10
 3e4:	2dd31463          	bne	t1,t4,6ac <fail>

000003e8 <test_11>:
 3e8:	4201                	li	tp,0
 3ea:	00ff00b7          	lui	ra,0xff0
 3ee:	0ff08093          	addi	ra,ra,255 # ff00ff <_gp+0xfef177>
 3f2:	0f0f1137          	lui	sp,0xf0f1
 3f6:	f0f10113          	addi	sp,sp,-241 # f0f0f0f <_gp+0xf0eff87>
 3fa:	0020e1b3          	or	gp,ra,sp
 3fe:	0001                	nop
 400:	0001                	nop
 402:	00018313          	mv	t1,gp
 406:	0205                	addi	tp,tp,1
 408:	4289                	li	t0,2
 40a:	fe5210e3          	bne	tp,t0,3ea <test_11+0x2>
 40e:	0fff1eb7          	lui	t4,0xfff1
 412:	fffe8e93          	addi	t4,t4,-1 # fff0fff <_gp+0xfff0077>
 416:	4e2d                	li	t3,11
 418:	29d31a63          	bne	t1,t4,6ac <fail>

0000041c <test_12>:
 41c:	4201                	li	tp,0
 41e:	ff0100b7          	lui	ra,0xff010
 422:	f0008093          	addi	ra,ra,-256 # ff00ff00 <_gp+0xff00ef78>
 426:	0f0f1137          	lui	sp,0xf0f1
 42a:	f0f10113          	addi	sp,sp,-241 # f0f0f0f <_gp+0xf0eff87>
 42e:	0020e1b3          	or	gp,ra,sp
 432:	0205                	addi	tp,tp,1
 434:	4289                	li	t0,2
 436:	fe5214e3          	bne	tp,t0,41e <test_12+0x2>
 43a:	ff100eb7          	lui	t4,0xff100
 43e:	f0fe8e93          	addi	t4,t4,-241 # ff0fff0f <_gp+0xff0fef87>
 442:	4e31                	li	t3,12
 444:	27d19463          	bne	gp,t4,6ac <fail>

00000448 <test_13>:
 448:	4201                	li	tp,0
 44a:	0ff010b7          	lui	ra,0xff01
 44e:	ff008093          	addi	ra,ra,-16 # ff00ff0 <_gp+0xff00068>
 452:	f0f0f137          	lui	sp,0xf0f0f
 456:	0f010113          	addi	sp,sp,240 # f0f0f0f0 <_gp+0xf0f0e168>
 45a:	0001                	nop
 45c:	0020e1b3          	or	gp,ra,sp
 460:	0205                	addi	tp,tp,1
 462:	4289                	li	t0,2
 464:	fe5213e3          	bne	tp,t0,44a <test_13+0x2>
 468:	fff10eb7          	lui	t4,0xfff10
 46c:	ff0e8e93          	addi	t4,t4,-16 # fff0fff0 <_gp+0xfff0f068>
 470:	4e35                	li	t3,13
 472:	23d19d63          	bne	gp,t4,6ac <fail>

00000476 <test_14>:
 476:	4201                	li	tp,0
 478:	00ff00b7          	lui	ra,0xff0
 47c:	0ff08093          	addi	ra,ra,255 # ff00ff <_gp+0xfef177>
 480:	0f0f1137          	lui	sp,0xf0f1
 484:	f0f10113          	addi	sp,sp,-241 # f0f0f0f <_gp+0xf0eff87>
 488:	0001                	nop
 48a:	0001                	nop
 48c:	0020e1b3          	or	gp,ra,sp
 490:	0205                	addi	tp,tp,1
 492:	4289                	li	t0,2
 494:	fe5212e3          	bne	tp,t0,478 <test_14+0x2>
 498:	0fff1eb7          	lui	t4,0xfff1
 49c:	fffe8e93          	addi	t4,t4,-1 # fff0fff <_gp+0xfff0077>
 4a0:	4e39                	li	t3,14
 4a2:	21d19563          	bne	gp,t4,6ac <fail>

000004a6 <test_15>:
 4a6:	4201                	li	tp,0
 4a8:	ff0100b7          	lui	ra,0xff010
 4ac:	f0008093          	addi	ra,ra,-256 # ff00ff00 <_gp+0xff00ef78>
 4b0:	0001                	nop
 4b2:	0f0f1137          	lui	sp,0xf0f1
 4b6:	f0f10113          	addi	sp,sp,-241 # f0f0f0f <_gp+0xf0eff87>
 4ba:	0020e1b3          	or	gp,ra,sp
 4be:	0205                	addi	tp,tp,1
 4c0:	4289                	li	t0,2
 4c2:	fe5213e3          	bne	tp,t0,4a8 <test_15+0x2>
 4c6:	ff100eb7          	lui	t4,0xff100
 4ca:	f0fe8e93          	addi	t4,t4,-241 # ff0fff0f <_gp+0xff0fef87>
 4ce:	4e3d                	li	t3,15
 4d0:	1dd19e63          	bne	gp,t4,6ac <fail>

000004d4 <test_16>:
 4d4:	4201                	li	tp,0
 4d6:	0ff010b7          	lui	ra,0xff01
 4da:	ff008093          	addi	ra,ra,-16 # ff00ff0 <_gp+0xff00068>
 4de:	0001                	nop
 4e0:	f0f0f137          	lui	sp,0xf0f0f
 4e4:	0f010113          	addi	sp,sp,240 # f0f0f0f0 <_gp+0xf0f0e168>
 4e8:	0001                	nop
 4ea:	0020e1b3          	or	gp,ra,sp
 4ee:	0205                	addi	tp,tp,1
 4f0:	4289                	li	t0,2
 4f2:	fe5212e3          	bne	tp,t0,4d6 <test_16+0x2>
 4f6:	fff10eb7          	lui	t4,0xfff10
 4fa:	ff0e8e93          	addi	t4,t4,-16 # fff0fff0 <_gp+0xfff0f068>
 4fe:	4e41                	li	t3,16
 500:	1bd19663          	bne	gp,t4,6ac <fail>

00000504 <test_17>:
 504:	4201                	li	tp,0
 506:	00ff00b7          	lui	ra,0xff0
 50a:	0ff08093          	addi	ra,ra,255 # ff00ff <_gp+0xfef177>
 50e:	0001                	nop
 510:	0001                	nop
 512:	0f0f1137          	lui	sp,0xf0f1
 516:	f0f10113          	addi	sp,sp,-241 # f0f0f0f <_gp+0xf0eff87>
 51a:	0020e1b3          	or	gp,ra,sp
 51e:	0205                	addi	tp,tp,1
 520:	4289                	li	t0,2
 522:	fe5212e3          	bne	tp,t0,506 <test_17+0x2>
 526:	0fff1eb7          	lui	t4,0xfff1
 52a:	fffe8e93          	addi	t4,t4,-1 # fff0fff <_gp+0xfff0077>
 52e:	4e45                	li	t3,17
 530:	17d19e63          	bne	gp,t4,6ac <fail>

00000534 <test_18>:
 534:	4201                	li	tp,0
 536:	0f0f1137          	lui	sp,0xf0f1
 53a:	f0f10113          	addi	sp,sp,-241 # f0f0f0f <_gp+0xf0eff87>
 53e:	ff0100b7          	lui	ra,0xff010
 542:	f0008093          	addi	ra,ra,-256 # ff00ff00 <_gp+0xff00ef78>
 546:	0020e1b3          	or	gp,ra,sp
 54a:	0205                	addi	tp,tp,1
 54c:	4289                	li	t0,2
 54e:	fe5214e3          	bne	tp,t0,536 <test_18+0x2>
 552:	ff100eb7          	lui	t4,0xff100
 556:	f0fe8e93          	addi	t4,t4,-241 # ff0fff0f <_gp+0xff0fef87>
 55a:	4e49                	li	t3,18
 55c:	15d19863          	bne	gp,t4,6ac <fail>

00000560 <test_19>:
 560:	4201                	li	tp,0
 562:	f0f0f137          	lui	sp,0xf0f0f
 566:	0f010113          	addi	sp,sp,240 # f0f0f0f0 <_gp+0xf0f0e168>
 56a:	0ff010b7          	lui	ra,0xff01
 56e:	ff008093          	addi	ra,ra,-16 # ff00ff0 <_gp+0xff00068>
 572:	0001                	nop
 574:	0020e1b3          	or	gp,ra,sp
 578:	0205                	addi	tp,tp,1
 57a:	4289                	li	t0,2
 57c:	fe5213e3          	bne	tp,t0,562 <test_19+0x2>
 580:	fff10eb7          	lui	t4,0xfff10
 584:	ff0e8e93          	addi	t4,t4,-16 # fff0fff0 <_gp+0xfff0f068>
 588:	4e4d                	li	t3,19
 58a:	13d19163          	bne	gp,t4,6ac <fail>

0000058e <test_20>:
 58e:	4201                	li	tp,0
 590:	0f0f1137          	lui	sp,0xf0f1
 594:	f0f10113          	addi	sp,sp,-241 # f0f0f0f <_gp+0xf0eff87>
 598:	00ff00b7          	lui	ra,0xff0
 59c:	0ff08093          	addi	ra,ra,255 # ff00ff <_gp+0xfef177>
 5a0:	0001                	nop
 5a2:	0001                	nop
 5a4:	0020e1b3          	or	gp,ra,sp
 5a8:	0205                	addi	tp,tp,1
 5aa:	4289                	li	t0,2
 5ac:	fe5212e3          	bne	tp,t0,590 <test_20+0x2>
 5b0:	0fff1eb7          	lui	t4,0xfff1
 5b4:	fffe8e93          	addi	t4,t4,-1 # fff0fff <_gp+0xfff0077>
 5b8:	4e51                	li	t3,20
 5ba:	0fd19963          	bne	gp,t4,6ac <fail>

000005be <test_21>:
 5be:	4201                	li	tp,0
 5c0:	0f0f1137          	lui	sp,0xf0f1
 5c4:	f0f10113          	addi	sp,sp,-241 # f0f0f0f <_gp+0xf0eff87>
 5c8:	0001                	nop
 5ca:	ff0100b7          	lui	ra,0xff010
 5ce:	f0008093          	addi	ra,ra,-256 # ff00ff00 <_gp+0xff00ef78>
 5d2:	0020e1b3          	or	gp,ra,sp
 5d6:	0205                	addi	tp,tp,1
 5d8:	4289                	li	t0,2
 5da:	fe5213e3          	bne	tp,t0,5c0 <test_21+0x2>
 5de:	ff100eb7          	lui	t4,0xff100
 5e2:	f0fe8e93          	addi	t4,t4,-241 # ff0fff0f <_gp+0xff0fef87>
 5e6:	4e55                	li	t3,21
 5e8:	0dd19263          	bne	gp,t4,6ac <fail>

000005ec <test_22>:
 5ec:	4201                	li	tp,0
 5ee:	f0f0f137          	lui	sp,0xf0f0f
 5f2:	0f010113          	addi	sp,sp,240 # f0f0f0f0 <_gp+0xf0f0e168>
 5f6:	0001                	nop
 5f8:	0ff010b7          	lui	ra,0xff01
 5fc:	ff008093          	addi	ra,ra,-16 # ff00ff0 <_gp+0xff00068>
 600:	0001                	nop
 602:	0020e1b3          	or	gp,ra,sp
 606:	0205                	addi	tp,tp,1
 608:	4289                	li	t0,2
 60a:	fe5212e3          	bne	tp,t0,5ee <test_22+0x2>
 60e:	fff10eb7          	lui	t4,0xfff10
 612:	ff0e8e93          	addi	t4,t4,-16 # fff0fff0 <_gp+0xfff0f068>
 616:	4e59                	li	t3,22
 618:	09d19a63          	bne	gp,t4,6ac <fail>

0000061c <test_23>:
 61c:	4201                	li	tp,0
 61e:	0f0f1137          	lui	sp,0xf0f1
 622:	f0f10113          	addi	sp,sp,-241 # f0f0f0f <_gp+0xf0eff87>
 626:	0001                	nop
 628:	0001                	nop
 62a:	00ff00b7          	lui	ra,0xff0
 62e:	0ff08093          	addi	ra,ra,255 # ff00ff <_gp+0xfef177>
 632:	0020e1b3          	or	gp,ra,sp
 636:	0205                	addi	tp,tp,1
 638:	4289                	li	t0,2
 63a:	fe5212e3          	bne	tp,t0,61e <test_23+0x2>
 63e:	0fff1eb7          	lui	t4,0xfff1
 642:	fffe8e93          	addi	t4,t4,-1 # fff0fff <_gp+0xfff0077>
 646:	4e5d                	li	t3,23
 648:	07d19263          	bne	gp,t4,6ac <fail>

0000064c <test_24>:
 64c:	ff0100b7          	lui	ra,0xff010
 650:	f0008093          	addi	ra,ra,-256 # ff00ff00 <_gp+0xff00ef78>
 654:	00106133          	or	sp,zero,ra
 658:	ff010eb7          	lui	t4,0xff010
 65c:	f00e8e93          	addi	t4,t4,-256 # ff00ff00 <_gp+0xff00ef78>
 660:	4e61                	li	t3,24
 662:	05d11563          	bne	sp,t4,6ac <fail>

00000666 <test_25>:
 666:	00ff00b7          	lui	ra,0xff0
 66a:	0ff08093          	addi	ra,ra,255 # ff00ff <_gp+0xfef177>
 66e:	0000e133          	or	sp,ra,zero
 672:	00ff0eb7          	lui	t4,0xff0
 676:	0ffe8e93          	addi	t4,t4,255 # ff00ff <_gp+0xfef177>
 67a:	4e65                	li	t3,25
 67c:	03d11863          	bne	sp,t4,6ac <fail>

00000680 <test_26>:
 680:	000060b3          	or	ra,zero,zero
 684:	4e81                	li	t4,0
 686:	4e69                	li	t3,26
 688:	03d09263          	bne	ra,t4,6ac <fail>

0000068c <test_27>:
 68c:	111110b7          	lui	ra,0x11111
 690:	11108093          	addi	ra,ra,273 # 11111111 <_gp+0x11110189>
 694:	22222137          	lui	sp,0x22222
 698:	22210113          	addi	sp,sp,546 # 22222222 <_gp+0x2222129a>
 69c:	0020e033          	or	zero,ra,sp
 6a0:	4e81                	li	t4,0
 6a2:	4e6d                	li	t3,27
 6a4:	01d01463          	bne	zero,t4,6ac <fail>
 6a8:	01c01863          	bne	zero,t3,6b8 <pass>

000006ac <fail>:
 6ac:	0ff0000f          	fence
 6b0:	85f2                	mv	a1,t3
 6b2:	4505                	li	a0,1
 6b4:	00000073          	ecall

000006b8 <pass>:
 6b8:	0ff0000f          	fence
 6bc:	85f2                	mv	a1,t3
 6be:	4501                	li	a0,0
 6c0:	00000073          	ecall

000006c4 <ecall>:
 6c4:	00000073          	ecall
	...

000006e0 <sc_exit>:
 6e0:	a15ff06f          	j	f4 <SIM_EXIT>
 6e4:	00000013          	nop
 6e8:	00000013          	nop
 6ec:	00000013          	nop
 6f0:	00000013          	nop
 6f4:	00000013          	nop
 6f8:	00000013          	nop
 6fc:	00000013          	nop
	...

Disassembly of section .tohost:

00000740 <tohost>:
	...

00000780 <fromhost>:
	...
