
/media/sf_virtualbox_shared/scr1_opensource/build/ori.elf:     file format elf32-littleriscv


Disassembly of section .text.init:

00000000 <SIM_EXIT-0xf4>:
	...

000000f4 <SIM_EXIT>:
  f4:	00000013          	nop

000000f8 <SIM_STOP>:
  f8:	0000006f          	j	f8 <SIM_STOP>
  fc:	ffff                	0xffff
  fe:	ffff                	0xffff
	...

000001c0 <trap_vector>:
 1c0:	34202f73          	csrr	t5,mcause
 1c4:	4fa1                	li	t6,8
 1c6:	03ff0563          	beq	t5,t6,1f0 <_report>
 1ca:	4fa5                	li	t6,9
 1cc:	03ff0263          	beq	t5,t6,1f0 <_report>
 1d0:	4fad                	li	t6,11
 1d2:	01ff0f63          	beq	t5,t6,1f0 <_report>
 1d6:	00000f17          	auipc	t5,0x0
 1da:	e2af0f13          	addi	t5,t5,-470 # 0 <CL_SIZE-0x20>
 1de:	000f0363          	beqz	t5,1e4 <trap_vector+0x24>
 1e2:	8f02                	jr	t5
 1e4:	34202f73          	csrr	t5,mcause
 1e8:	000f5363          	bgez	t5,1ee <handle_exception>
 1ec:	a009                	j	1ee <handle_exception>

000001ee <handle_exception>:
 1ee:	4505                	li	a0,1

000001f0 <_report>:
 1f0:	2700006f          	j	460 <sc_exit>
 1f4:	00000013          	nop
 1f8:	00000013          	nop
 1fc:	00000013          	nop

00000200 <_start>:
 200:	f1402573          	csrr	a0,mhartid
 204:	e101                	bnez	a0,204 <_start+0x4>
 206:	4e01                	li	t3,0
 208:	00000297          	auipc	t0,0x0
 20c:	fb828293          	addi	t0,t0,-72 # 1c0 <trap_vector>
 210:	30529073          	csrw	mtvec,t0
 214:	4505                	li	a0,1
 216:	057e                	slli	a0,a0,0x1f
 218:	00054863          	bltz	a0,228 <_start+0x28>
 21c:	0ff0000f          	fence
 220:	85f2                	mv	a1,t3
 222:	4501                	li	a0,0
 224:	00000073          	ecall
 228:	00000297          	auipc	t0,0x0
 22c:	dd828293          	addi	t0,t0,-552 # 0 <CL_SIZE-0x20>
 230:	00028e63          	beqz	t0,24c <_start+0x4c>
 234:	10529073          	csrw	stvec,t0
 238:	0000b2b7          	lui	t0,0xb
 23c:	10928293          	addi	t0,t0,265 # b109 <_gp+0xa401>
 240:	30229073          	csrw	medeleg,t0
 244:	30202373          	csrr	t1,medeleg
 248:	fa6293e3          	bne	t0,t1,1ee <handle_exception>
 24c:	30005073          	csrwi	mstatus,0
 250:	00000297          	auipc	t0,0x0
 254:	05028293          	addi	t0,t0,80 # 2a0 <_run_test>
 258:	34129073          	csrw	mepc,t0
 25c:	f1402573          	csrr	a0,mhartid
 260:	30200073          	mret
	...

Disassembly of section .text:

000002a0 <_run_test>:
 2a0:	ff0100b7          	lui	ra,0xff010
 2a4:	f0008093          	addi	ra,ra,-256 # ff00ff00 <_gp+0xff00f1f8>
 2a8:	f0f0e193          	ori	gp,ra,-241
 2ac:	f0f00e93          	li	t4,-241
 2b0:	4e09                	li	t3,2
 2b2:	17d19f63          	bne	gp,t4,430 <fail>

000002b6 <test_3>:
 2b6:	0ff010b7          	lui	ra,0xff01
 2ba:	ff008093          	addi	ra,ra,-16 # ff00ff0 <_gp+0xff002e8>
 2be:	0f00e193          	ori	gp,ra,240
 2c2:	0ff01eb7          	lui	t4,0xff01
 2c6:	ff0e8e93          	addi	t4,t4,-16 # ff00ff0 <_gp+0xff002e8>
 2ca:	4e0d                	li	t3,3
 2cc:	17d19263          	bne	gp,t4,430 <fail>

000002d0 <test_4>:
 2d0:	00ff00b7          	lui	ra,0xff0
 2d4:	0ff08093          	addi	ra,ra,255 # ff00ff <_gp+0xfef3f7>
 2d8:	70f0e193          	ori	gp,ra,1807
 2dc:	00ff0eb7          	lui	t4,0xff0
 2e0:	7ffe8e93          	addi	t4,t4,2047 # ff07ff <_gp+0xfefaf7>
 2e4:	4e11                	li	t3,4
 2e6:	15d19563          	bne	gp,t4,430 <fail>

000002ea <test_5>:
 2ea:	f00ff0b7          	lui	ra,0xf00ff
 2ee:	00f08093          	addi	ra,ra,15 # f00ff00f <_gp+0xf00fe307>
 2f2:	0f00e193          	ori	gp,ra,240
 2f6:	f00ffeb7          	lui	t4,0xf00ff
 2fa:	0ffe8e93          	addi	t4,t4,255 # f00ff0ff <_gp+0xf00fe3f7>
 2fe:	4e15                	li	t3,5
 300:	13d19863          	bne	gp,t4,430 <fail>

00000304 <test_6>:
 304:	ff0100b7          	lui	ra,0xff010
 308:	f0008093          	addi	ra,ra,-256 # ff00ff00 <_gp+0xff00f1f8>
 30c:	0f00e093          	ori	ra,ra,240
 310:	ff010eb7          	lui	t4,0xff010
 314:	ff0e8e93          	addi	t4,t4,-16 # ff00fff0 <_gp+0xff00f2e8>
 318:	4e19                	li	t3,6
 31a:	11d09b63          	bne	ra,t4,430 <fail>

0000031e <test_7>:
 31e:	4201                	li	tp,0
 320:	0ff010b7          	lui	ra,0xff01
 324:	ff008093          	addi	ra,ra,-16 # ff00ff0 <_gp+0xff002e8>
 328:	0f00e193          	ori	gp,ra,240
 32c:	00018313          	mv	t1,gp
 330:	0205                	addi	tp,tp,1
 332:	4289                	li	t0,2
 334:	fe5216e3          	bne	tp,t0,320 <test_7+0x2>
 338:	0ff01eb7          	lui	t4,0xff01
 33c:	ff0e8e93          	addi	t4,t4,-16 # ff00ff0 <_gp+0xff002e8>
 340:	4e1d                	li	t3,7
 342:	0fd31763          	bne	t1,t4,430 <fail>

00000346 <test_8>:
 346:	4201                	li	tp,0
 348:	00ff00b7          	lui	ra,0xff0
 34c:	0ff08093          	addi	ra,ra,255 # ff00ff <_gp+0xfef3f7>
 350:	70f0e193          	ori	gp,ra,1807
 354:	0001                	nop
 356:	00018313          	mv	t1,gp
 35a:	0205                	addi	tp,tp,1
 35c:	4289                	li	t0,2
 35e:	fe5215e3          	bne	tp,t0,348 <test_8+0x2>
 362:	00ff0eb7          	lui	t4,0xff0
 366:	7ffe8e93          	addi	t4,t4,2047 # ff07ff <_gp+0xfefaf7>
 36a:	4e21                	li	t3,8
 36c:	0dd31263          	bne	t1,t4,430 <fail>

00000370 <test_9>:
 370:	4201                	li	tp,0
 372:	f00ff0b7          	lui	ra,0xf00ff
 376:	00f08093          	addi	ra,ra,15 # f00ff00f <_gp+0xf00fe307>
 37a:	0f00e193          	ori	gp,ra,240
 37e:	0001                	nop
 380:	0001                	nop
 382:	00018313          	mv	t1,gp
 386:	0205                	addi	tp,tp,1
 388:	4289                	li	t0,2
 38a:	fe5214e3          	bne	tp,t0,372 <test_9+0x2>
 38e:	f00ffeb7          	lui	t4,0xf00ff
 392:	0ffe8e93          	addi	t4,t4,255 # f00ff0ff <_gp+0xf00fe3f7>
 396:	4e25                	li	t3,9
 398:	09d31c63          	bne	t1,t4,430 <fail>

0000039c <test_10>:
 39c:	4201                	li	tp,0
 39e:	0ff010b7          	lui	ra,0xff01
 3a2:	ff008093          	addi	ra,ra,-16 # ff00ff0 <_gp+0xff002e8>
 3a6:	0f00e193          	ori	gp,ra,240
 3aa:	0205                	addi	tp,tp,1
 3ac:	4289                	li	t0,2
 3ae:	fe5218e3          	bne	tp,t0,39e <test_10+0x2>
 3b2:	0ff01eb7          	lui	t4,0xff01
 3b6:	ff0e8e93          	addi	t4,t4,-16 # ff00ff0 <_gp+0xff002e8>
 3ba:	4e29                	li	t3,10
 3bc:	07d19a63          	bne	gp,t4,430 <fail>

000003c0 <test_11>:
 3c0:	4201                	li	tp,0
 3c2:	00ff00b7          	lui	ra,0xff0
 3c6:	0ff08093          	addi	ra,ra,255 # ff00ff <_gp+0xfef3f7>
 3ca:	0001                	nop
 3cc:	f0f0e193          	ori	gp,ra,-241
 3d0:	0205                	addi	tp,tp,1
 3d2:	4289                	li	t0,2
 3d4:	fe5217e3          	bne	tp,t0,3c2 <test_11+0x2>
 3d8:	fff00e93          	li	t4,-1
 3dc:	4e2d                	li	t3,11
 3de:	05d19963          	bne	gp,t4,430 <fail>

000003e2 <test_12>:
 3e2:	4201                	li	tp,0
 3e4:	f00ff0b7          	lui	ra,0xf00ff
 3e8:	00f08093          	addi	ra,ra,15 # f00ff00f <_gp+0xf00fe307>
 3ec:	0001                	nop
 3ee:	0001                	nop
 3f0:	0f00e193          	ori	gp,ra,240
 3f4:	0205                	addi	tp,tp,1
 3f6:	4289                	li	t0,2
 3f8:	fe5216e3          	bne	tp,t0,3e4 <test_12+0x2>
 3fc:	f00ffeb7          	lui	t4,0xf00ff
 400:	0ffe8e93          	addi	t4,t4,255 # f00ff0ff <_gp+0xf00fe3f7>
 404:	4e31                	li	t3,12
 406:	03d19563          	bne	gp,t4,430 <fail>

0000040a <test_13>:
 40a:	0f006093          	ori	ra,zero,240
 40e:	0f000e93          	li	t4,240
 412:	4e35                	li	t3,13
 414:	01d09e63          	bne	ra,t4,430 <fail>

00000418 <test_14>:
 418:	00ff00b7          	lui	ra,0xff0
 41c:	0ff08093          	addi	ra,ra,255 # ff00ff <_gp+0xfef3f7>
 420:	70f0e013          	ori	zero,ra,1807
 424:	4e81                	li	t4,0
 426:	4e39                	li	t3,14
 428:	01d01463          	bne	zero,t4,430 <fail>
 42c:	01c01863          	bne	zero,t3,43c <pass>

00000430 <fail>:
 430:	0ff0000f          	fence
 434:	85f2                	mv	a1,t3
 436:	4505                	li	a0,1
 438:	00000073          	ecall

0000043c <pass>:
 43c:	0ff0000f          	fence
 440:	85f2                	mv	a1,t3
 442:	4501                	li	a0,0
 444:	00000073          	ecall

00000448 <ecall>:
 448:	00000073          	ecall
	...

00000460 <sc_exit>:
 460:	c95ff06f          	j	f4 <SIM_EXIT>
 464:	00000013          	nop
 468:	00000013          	nop
 46c:	00000013          	nop
 470:	00000013          	nop
 474:	00000013          	nop
 478:	00000013          	nop
 47c:	00000013          	nop
	...

Disassembly of section .tohost:

000004c0 <tohost>:
	...

00000500 <fromhost>:
	...
