
/media/sf_virtualbox_shared/scr1_opensource/build/sltu.elf:     file format elf32-littleriscv


Disassembly of section .text.init:

00000000 <SIM_EXIT-0xf4>:
	...

000000f4 <SIM_EXIT>:
  f4:	00000013          	nop

000000f8 <SIM_STOP>:
  f8:	0000006f          	j	f8 <SIM_STOP>
  fc:	ffff                	0xffff
  fe:	ffff                	0xffff
	...

000001c0 <trap_vector>:
 1c0:	34202f73          	csrr	t5,mcause
 1c4:	4fa1                	li	t6,8
 1c6:	03ff0563          	beq	t5,t6,1f0 <_report>
 1ca:	4fa5                	li	t6,9
 1cc:	03ff0263          	beq	t5,t6,1f0 <_report>
 1d0:	4fad                	li	t6,11
 1d2:	01ff0f63          	beq	t5,t6,1f0 <_report>
 1d6:	00000f17          	auipc	t5,0x0
 1da:	e2af0f13          	addi	t5,t5,-470 # 0 <CL_SIZE-0x20>
 1de:	000f0363          	beqz	t5,1e4 <trap_vector+0x24>
 1e2:	8f02                	jr	t5
 1e4:	34202f73          	csrr	t5,mcause
 1e8:	000f5363          	bgez	t5,1ee <handle_exception>
 1ec:	a009                	j	1ee <handle_exception>

000001ee <handle_exception>:
 1ee:	4505                	li	a0,1

000001f0 <_report>:
 1f0:	4300006f          	j	620 <sc_exit>
 1f4:	00000013          	nop
 1f8:	00000013          	nop
 1fc:	00000013          	nop

00000200 <_start>:
 200:	f1402573          	csrr	a0,mhartid
 204:	e101                	bnez	a0,204 <_start+0x4>
 206:	4e01                	li	t3,0
 208:	00000297          	auipc	t0,0x0
 20c:	fb828293          	addi	t0,t0,-72 # 1c0 <trap_vector>
 210:	30529073          	csrw	mtvec,t0
 214:	4505                	li	a0,1
 216:	057e                	slli	a0,a0,0x1f
 218:	00054863          	bltz	a0,228 <_start+0x28>
 21c:	0ff0000f          	fence
 220:	85f2                	mv	a1,t3
 222:	4501                	li	a0,0
 224:	00000073          	ecall
 228:	00000297          	auipc	t0,0x0
 22c:	dd828293          	addi	t0,t0,-552 # 0 <CL_SIZE-0x20>
 230:	00028e63          	beqz	t0,24c <_start+0x4c>
 234:	10529073          	csrw	stvec,t0
 238:	0000b2b7          	lui	t0,0xb
 23c:	10928293          	addi	t0,t0,265 # b109 <_gp+0xa241>
 240:	30229073          	csrw	medeleg,t0
 244:	30202373          	csrr	t1,medeleg
 248:	fa6293e3          	bne	t0,t1,1ee <handle_exception>
 24c:	30005073          	csrwi	mstatus,0
 250:	00000297          	auipc	t0,0x0
 254:	05028293          	addi	t0,t0,80 # 2a0 <_run_test>
 258:	34129073          	csrw	mepc,t0
 25c:	f1402573          	csrr	a0,mhartid
 260:	30200073          	mret
	...

Disassembly of section .text:

000002a0 <_run_test>:
 2a0:	4081                	li	ra,0
 2a2:	4101                	li	sp,0
 2a4:	0020b1b3          	sltu	gp,ra,sp
 2a8:	4e81                	li	t4,0
 2aa:	4e09                	li	t3,2
 2ac:	35d19863          	bne	gp,t4,5fc <fail>

000002b0 <test_3>:
 2b0:	4085                	li	ra,1
 2b2:	4105                	li	sp,1
 2b4:	0020b1b3          	sltu	gp,ra,sp
 2b8:	4e81                	li	t4,0
 2ba:	4e0d                	li	t3,3
 2bc:	35d19063          	bne	gp,t4,5fc <fail>

000002c0 <test_4>:
 2c0:	408d                	li	ra,3
 2c2:	411d                	li	sp,7
 2c4:	0020b1b3          	sltu	gp,ra,sp
 2c8:	4e85                	li	t4,1
 2ca:	4e11                	li	t3,4
 2cc:	33d19863          	bne	gp,t4,5fc <fail>

000002d0 <test_5>:
 2d0:	409d                	li	ra,7
 2d2:	410d                	li	sp,3
 2d4:	0020b1b3          	sltu	gp,ra,sp
 2d8:	4e81                	li	t4,0
 2da:	4e15                	li	t3,5
 2dc:	33d19063          	bne	gp,t4,5fc <fail>

000002e0 <test_6>:
 2e0:	4081                	li	ra,0
 2e2:	ffff8137          	lui	sp,0xffff8
 2e6:	0020b1b3          	sltu	gp,ra,sp
 2ea:	4e85                	li	t4,1
 2ec:	4e19                	li	t3,6
 2ee:	31d19763          	bne	gp,t4,5fc <fail>

000002f2 <test_7>:
 2f2:	800000b7          	lui	ra,0x80000
 2f6:	4101                	li	sp,0
 2f8:	0020b1b3          	sltu	gp,ra,sp
 2fc:	4e81                	li	t4,0
 2fe:	4e1d                	li	t3,7
 300:	2fd19e63          	bne	gp,t4,5fc <fail>

00000304 <test_8>:
 304:	800000b7          	lui	ra,0x80000
 308:	ffff8137          	lui	sp,0xffff8
 30c:	0020b1b3          	sltu	gp,ra,sp
 310:	4e85                	li	t4,1
 312:	4e21                	li	t3,8
 314:	2fd19463          	bne	gp,t4,5fc <fail>

00000318 <test_9>:
 318:	4081                	li	ra,0
 31a:	00008137          	lui	sp,0x8
 31e:	fff10113          	addi	sp,sp,-1 # 7fff <_gp+0x7137>
 322:	0020b1b3          	sltu	gp,ra,sp
 326:	4e85                	li	t4,1
 328:	4e25                	li	t3,9
 32a:	2dd19963          	bne	gp,t4,5fc <fail>

0000032e <test_10>:
 32e:	800000b7          	lui	ra,0x80000
 332:	fff08093          	addi	ra,ra,-1 # 7fffffff <_gp+0x7ffff137>
 336:	4101                	li	sp,0
 338:	0020b1b3          	sltu	gp,ra,sp
 33c:	4e81                	li	t4,0
 33e:	4e29                	li	t3,10
 340:	2bd19e63          	bne	gp,t4,5fc <fail>

00000344 <test_11>:
 344:	800000b7          	lui	ra,0x80000
 348:	fff08093          	addi	ra,ra,-1 # 7fffffff <_gp+0x7ffff137>
 34c:	00008137          	lui	sp,0x8
 350:	fff10113          	addi	sp,sp,-1 # 7fff <_gp+0x7137>
 354:	0020b1b3          	sltu	gp,ra,sp
 358:	4e81                	li	t4,0
 35a:	4e2d                	li	t3,11
 35c:	2bd19063          	bne	gp,t4,5fc <fail>

00000360 <test_12>:
 360:	800000b7          	lui	ra,0x80000
 364:	00008137          	lui	sp,0x8
 368:	fff10113          	addi	sp,sp,-1 # 7fff <_gp+0x7137>
 36c:	0020b1b3          	sltu	gp,ra,sp
 370:	4e81                	li	t4,0
 372:	4e31                	li	t3,12
 374:	29d19463          	bne	gp,t4,5fc <fail>

00000378 <test_13>:
 378:	800000b7          	lui	ra,0x80000
 37c:	fff08093          	addi	ra,ra,-1 # 7fffffff <_gp+0x7ffff137>
 380:	ffff8137          	lui	sp,0xffff8
 384:	0020b1b3          	sltu	gp,ra,sp
 388:	4e85                	li	t4,1
 38a:	4e35                	li	t3,13
 38c:	27d19863          	bne	gp,t4,5fc <fail>

00000390 <test_14>:
 390:	4081                	li	ra,0
 392:	fff00113          	li	sp,-1
 396:	0020b1b3          	sltu	gp,ra,sp
 39a:	4e85                	li	t4,1
 39c:	4e39                	li	t3,14
 39e:	25d19f63          	bne	gp,t4,5fc <fail>

000003a2 <test_15>:
 3a2:	fff00093          	li	ra,-1
 3a6:	4105                	li	sp,1
 3a8:	0020b1b3          	sltu	gp,ra,sp
 3ac:	4e81                	li	t4,0
 3ae:	4e3d                	li	t3,15
 3b0:	25d19663          	bne	gp,t4,5fc <fail>

000003b4 <test_16>:
 3b4:	fff00093          	li	ra,-1
 3b8:	fff00113          	li	sp,-1
 3bc:	0020b1b3          	sltu	gp,ra,sp
 3c0:	4e81                	li	t4,0
 3c2:	4e41                	li	t3,16
 3c4:	23d19c63          	bne	gp,t4,5fc <fail>

000003c8 <test_17>:
 3c8:	40b9                	li	ra,14
 3ca:	4135                	li	sp,13
 3cc:	0020b0b3          	sltu	ra,ra,sp
 3d0:	4e81                	li	t4,0
 3d2:	4e45                	li	t3,17
 3d4:	23d09463          	bne	ra,t4,5fc <fail>

000003d8 <test_18>:
 3d8:	40ad                	li	ra,11
 3da:	4135                	li	sp,13
 3dc:	0020b133          	sltu	sp,ra,sp
 3e0:	4e85                	li	t4,1
 3e2:	4e49                	li	t3,18
 3e4:	21d11c63          	bne	sp,t4,5fc <fail>

000003e8 <test_19>:
 3e8:	40b5                	li	ra,13
 3ea:	0010b0b3          	sltu	ra,ra,ra
 3ee:	4e81                	li	t4,0
 3f0:	4e4d                	li	t3,19
 3f2:	21d09563          	bne	ra,t4,5fc <fail>

000003f6 <test_20>:
 3f6:	4201                	li	tp,0
 3f8:	40ad                	li	ra,11
 3fa:	4135                	li	sp,13
 3fc:	0020b1b3          	sltu	gp,ra,sp
 400:	00018313          	mv	t1,gp
 404:	0205                	addi	tp,tp,1
 406:	4289                	li	t0,2
 408:	fe5218e3          	bne	tp,t0,3f8 <test_20+0x2>
 40c:	4e85                	li	t4,1
 40e:	4e51                	li	t3,20
 410:	1fd31663          	bne	t1,t4,5fc <fail>

00000414 <test_21>:
 414:	4201                	li	tp,0
 416:	40b9                	li	ra,14
 418:	4135                	li	sp,13
 41a:	0020b1b3          	sltu	gp,ra,sp
 41e:	0001                	nop
 420:	00018313          	mv	t1,gp
 424:	0205                	addi	tp,tp,1
 426:	4289                	li	t0,2
 428:	fe5217e3          	bne	tp,t0,416 <test_21+0x2>
 42c:	4e81                	li	t4,0
 42e:	4e55                	li	t3,21
 430:	1dd31663          	bne	t1,t4,5fc <fail>

00000434 <test_22>:
 434:	4201                	li	tp,0
 436:	40b1                	li	ra,12
 438:	4135                	li	sp,13
 43a:	0020b1b3          	sltu	gp,ra,sp
 43e:	0001                	nop
 440:	0001                	nop
 442:	00018313          	mv	t1,gp
 446:	0205                	addi	tp,tp,1
 448:	4289                	li	t0,2
 44a:	fe5216e3          	bne	tp,t0,436 <test_22+0x2>
 44e:	4e85                	li	t4,1
 450:	4e59                	li	t3,22
 452:	1bd31563          	bne	t1,t4,5fc <fail>

00000456 <test_23>:
 456:	4201                	li	tp,0
 458:	40b9                	li	ra,14
 45a:	4135                	li	sp,13
 45c:	0020b1b3          	sltu	gp,ra,sp
 460:	0205                	addi	tp,tp,1
 462:	4289                	li	t0,2
 464:	fe521ae3          	bne	tp,t0,458 <test_23+0x2>
 468:	4e81                	li	t4,0
 46a:	4e5d                	li	t3,23
 46c:	19d19863          	bne	gp,t4,5fc <fail>

00000470 <test_24>:
 470:	4201                	li	tp,0
 472:	40ad                	li	ra,11
 474:	4135                	li	sp,13
 476:	0001                	nop
 478:	0020b1b3          	sltu	gp,ra,sp
 47c:	0205                	addi	tp,tp,1
 47e:	4289                	li	t0,2
 480:	fe5219e3          	bne	tp,t0,472 <test_24+0x2>
 484:	4e85                	li	t4,1
 486:	4e61                	li	t3,24
 488:	17d19a63          	bne	gp,t4,5fc <fail>

0000048c <test_25>:
 48c:	4201                	li	tp,0
 48e:	40bd                	li	ra,15
 490:	4135                	li	sp,13
 492:	0001                	nop
 494:	0001                	nop
 496:	0020b1b3          	sltu	gp,ra,sp
 49a:	0205                	addi	tp,tp,1
 49c:	4289                	li	t0,2
 49e:	fe5218e3          	bne	tp,t0,48e <test_25+0x2>
 4a2:	4e81                	li	t4,0
 4a4:	4e65                	li	t3,25
 4a6:	15d19b63          	bne	gp,t4,5fc <fail>

000004aa <test_26>:
 4aa:	4201                	li	tp,0
 4ac:	40a9                	li	ra,10
 4ae:	0001                	nop
 4b0:	4135                	li	sp,13
 4b2:	0020b1b3          	sltu	gp,ra,sp
 4b6:	0205                	addi	tp,tp,1
 4b8:	4289                	li	t0,2
 4ba:	fe5219e3          	bne	tp,t0,4ac <test_26+0x2>
 4be:	4e85                	li	t4,1
 4c0:	4e69                	li	t3,26
 4c2:	13d19d63          	bne	gp,t4,5fc <fail>

000004c6 <test_27>:
 4c6:	4201                	li	tp,0
 4c8:	40c1                	li	ra,16
 4ca:	0001                	nop
 4cc:	4135                	li	sp,13
 4ce:	0001                	nop
 4d0:	0020b1b3          	sltu	gp,ra,sp
 4d4:	0205                	addi	tp,tp,1
 4d6:	4289                	li	t0,2
 4d8:	fe5218e3          	bne	tp,t0,4c8 <test_27+0x2>
 4dc:	4e81                	li	t4,0
 4de:	4e6d                	li	t3,27
 4e0:	11d19e63          	bne	gp,t4,5fc <fail>

000004e4 <test_28>:
 4e4:	4201                	li	tp,0
 4e6:	40a5                	li	ra,9
 4e8:	0001                	nop
 4ea:	0001                	nop
 4ec:	4135                	li	sp,13
 4ee:	0020b1b3          	sltu	gp,ra,sp
 4f2:	0205                	addi	tp,tp,1
 4f4:	4289                	li	t0,2
 4f6:	fe5218e3          	bne	tp,t0,4e6 <test_28+0x2>
 4fa:	4e85                	li	t4,1
 4fc:	4e71                	li	t3,28
 4fe:	0fd19f63          	bne	gp,t4,5fc <fail>

00000502 <test_29>:
 502:	4201                	li	tp,0
 504:	4135                	li	sp,13
 506:	40c5                	li	ra,17
 508:	0020b1b3          	sltu	gp,ra,sp
 50c:	0205                	addi	tp,tp,1
 50e:	4289                	li	t0,2
 510:	fe521ae3          	bne	tp,t0,504 <test_29+0x2>
 514:	4e81                	li	t4,0
 516:	4e75                	li	t3,29
 518:	0fd19263          	bne	gp,t4,5fc <fail>

0000051c <test_30>:
 51c:	4201                	li	tp,0
 51e:	4135                	li	sp,13
 520:	40a1                	li	ra,8
 522:	0001                	nop
 524:	0020b1b3          	sltu	gp,ra,sp
 528:	0205                	addi	tp,tp,1
 52a:	4289                	li	t0,2
 52c:	fe5219e3          	bne	tp,t0,51e <test_30+0x2>
 530:	4e85                	li	t4,1
 532:	4e79                	li	t3,30
 534:	0dd19463          	bne	gp,t4,5fc <fail>

00000538 <test_31>:
 538:	4201                	li	tp,0
 53a:	4135                	li	sp,13
 53c:	40c9                	li	ra,18
 53e:	0001                	nop
 540:	0001                	nop
 542:	0020b1b3          	sltu	gp,ra,sp
 546:	0205                	addi	tp,tp,1
 548:	4289                	li	t0,2
 54a:	fe5218e3          	bne	tp,t0,53a <test_31+0x2>
 54e:	4e81                	li	t4,0
 550:	4e7d                	li	t3,31
 552:	0bd19563          	bne	gp,t4,5fc <fail>

00000556 <test_32>:
 556:	4201                	li	tp,0
 558:	4135                	li	sp,13
 55a:	0001                	nop
 55c:	409d                	li	ra,7
 55e:	0020b1b3          	sltu	gp,ra,sp
 562:	0205                	addi	tp,tp,1
 564:	4289                	li	t0,2
 566:	fe5219e3          	bne	tp,t0,558 <test_32+0x2>
 56a:	4e85                	li	t4,1
 56c:	02000e13          	li	t3,32
 570:	09d19663          	bne	gp,t4,5fc <fail>

00000574 <test_33>:
 574:	4201                	li	tp,0
 576:	4135                	li	sp,13
 578:	0001                	nop
 57a:	40cd                	li	ra,19
 57c:	0001                	nop
 57e:	0020b1b3          	sltu	gp,ra,sp
 582:	0205                	addi	tp,tp,1
 584:	4289                	li	t0,2
 586:	fe5218e3          	bne	tp,t0,576 <test_33+0x2>
 58a:	4e81                	li	t4,0
 58c:	02100e13          	li	t3,33
 590:	07d19663          	bne	gp,t4,5fc <fail>

00000594 <test_34>:
 594:	4201                	li	tp,0
 596:	4135                	li	sp,13
 598:	0001                	nop
 59a:	0001                	nop
 59c:	4099                	li	ra,6
 59e:	0020b1b3          	sltu	gp,ra,sp
 5a2:	0205                	addi	tp,tp,1
 5a4:	4289                	li	t0,2
 5a6:	fe5218e3          	bne	tp,t0,596 <test_34+0x2>
 5aa:	4e85                	li	t4,1
 5ac:	02200e13          	li	t3,34
 5b0:	05d19663          	bne	gp,t4,5fc <fail>

000005b4 <test_35>:
 5b4:	fff00093          	li	ra,-1
 5b8:	00103133          	snez	sp,ra
 5bc:	4e85                	li	t4,1
 5be:	02300e13          	li	t3,35
 5c2:	03d11d63          	bne	sp,t4,5fc <fail>

000005c6 <test_36>:
 5c6:	fff00093          	li	ra,-1
 5ca:	0000b133          	sltu	sp,ra,zero
 5ce:	4e81                	li	t4,0
 5d0:	02400e13          	li	t3,36
 5d4:	03d11463          	bne	sp,t4,5fc <fail>

000005d8 <test_37>:
 5d8:	000030b3          	snez	ra,zero
 5dc:	4e81                	li	t4,0
 5de:	02500e13          	li	t3,37
 5e2:	01d09d63          	bne	ra,t4,5fc <fail>

000005e6 <test_38>:
 5e6:	40c1                	li	ra,16
 5e8:	4179                	li	sp,30
 5ea:	0020b033          	sltu	zero,ra,sp
 5ee:	4e81                	li	t4,0
 5f0:	02600e13          	li	t3,38
 5f4:	01d01463          	bne	zero,t4,5fc <fail>
 5f8:	01c01863          	bne	zero,t3,608 <pass>

000005fc <fail>:
 5fc:	0ff0000f          	fence
 600:	85f2                	mv	a1,t3
 602:	4505                	li	a0,1
 604:	00000073          	ecall

00000608 <pass>:
 608:	0ff0000f          	fence
 60c:	85f2                	mv	a1,t3
 60e:	4501                	li	a0,0
 610:	00000073          	ecall

00000614 <ecall>:
 614:	00000073          	ecall
	...

00000620 <sc_exit>:
 620:	ad5ff06f          	j	f4 <SIM_EXIT>
 624:	00000013          	nop
 628:	00000013          	nop
 62c:	00000013          	nop
 630:	00000013          	nop
 634:	00000013          	nop
 638:	00000013          	nop
 63c:	00000013          	nop
	...

Disassembly of section .tohost:

00000680 <tohost>:
	...

000006c0 <fromhost>:
	...
