
/media/sf_virtualbox_shared/scr1_opensource/build/srli.elf:     file format elf32-littleriscv


Disassembly of section .text.init:

00000000 <SIM_EXIT-0xf4>:
	...

000000f4 <SIM_EXIT>:
  f4:	00000013          	nop

000000f8 <SIM_STOP>:
  f8:	0000006f          	j	f8 <SIM_STOP>
  fc:	ffff                	0xffff
  fe:	ffff                	0xffff
	...

000001c0 <trap_vector>:
 1c0:	34202f73          	csrr	t5,mcause
 1c4:	4fa1                	li	t6,8
 1c6:	03ff0563          	beq	t5,t6,1f0 <_report>
 1ca:	4fa5                	li	t6,9
 1cc:	03ff0263          	beq	t5,t6,1f0 <_report>
 1d0:	4fad                	li	t6,11
 1d2:	01ff0f63          	beq	t5,t6,1f0 <_report>
 1d6:	00000f17          	auipc	t5,0x0
 1da:	e2af0f13          	addi	t5,t5,-470 # 0 <CL_SIZE-0x20>
 1de:	000f0363          	beqz	t5,1e4 <trap_vector+0x24>
 1e2:	8f02                	jr	t5
 1e4:	34202f73          	csrr	t5,mcause
 1e8:	000f5363          	bgez	t5,1ee <handle_exception>
 1ec:	a009                	j	1ee <handle_exception>

000001ee <handle_exception>:
 1ee:	4505                	li	a0,1

000001f0 <_report>:
 1f0:	3100006f          	j	500 <sc_exit>
 1f4:	00000013          	nop
 1f8:	00000013          	nop
 1fc:	00000013          	nop

00000200 <_start>:
 200:	f1402573          	csrr	a0,mhartid
 204:	e101                	bnez	a0,204 <_start+0x4>
 206:	4e01                	li	t3,0
 208:	00000297          	auipc	t0,0x0
 20c:	fb828293          	addi	t0,t0,-72 # 1c0 <trap_vector>
 210:	30529073          	csrw	mtvec,t0
 214:	4505                	li	a0,1
 216:	057e                	slli	a0,a0,0x1f
 218:	00054863          	bltz	a0,228 <_start+0x28>
 21c:	0ff0000f          	fence
 220:	85f2                	mv	a1,t3
 222:	4501                	li	a0,0
 224:	00000073          	ecall
 228:	00000297          	auipc	t0,0x0
 22c:	dd828293          	addi	t0,t0,-552 # 0 <CL_SIZE-0x20>
 230:	00028e63          	beqz	t0,24c <_start+0x4c>
 234:	10529073          	csrw	stvec,t0
 238:	0000b2b7          	lui	t0,0xb
 23c:	10928293          	addi	t0,t0,265 # b109 <_gp+0xa381>
 240:	30229073          	csrw	medeleg,t0
 244:	30202373          	csrr	t1,medeleg
 248:	fa6293e3          	bne	t0,t1,1ee <handle_exception>
 24c:	30005073          	csrwi	mstatus,0
 250:	00000297          	auipc	t0,0x0
 254:	05028293          	addi	t0,t0,80 # 2a0 <_run_test>
 258:	34129073          	csrw	mepc,t0
 25c:	f1402573          	csrr	a0,mhartid
 260:	30200073          	mret
	...

Disassembly of section .text:

000002a0 <_run_test>:
 2a0:	800000b7          	lui	ra,0x80000
 2a4:	0000d193          	srli	gp,ra,0x0
 2a8:	80000eb7          	lui	t4,0x80000
 2ac:	4e09                	li	t3,2
 2ae:	23d19263          	bne	gp,t4,4d2 <fail>

000002b2 <test_3>:
 2b2:	800000b7          	lui	ra,0x80000
 2b6:	0010d193          	srli	gp,ra,0x1
 2ba:	40000eb7          	lui	t4,0x40000
 2be:	4e0d                	li	t3,3
 2c0:	21d19963          	bne	gp,t4,4d2 <fail>

000002c4 <test_4>:
 2c4:	800000b7          	lui	ra,0x80000
 2c8:	0070d193          	srli	gp,ra,0x7
 2cc:	01000eb7          	lui	t4,0x1000
 2d0:	4e11                	li	t3,4
 2d2:	21d19063          	bne	gp,t4,4d2 <fail>

000002d6 <test_5>:
 2d6:	800000b7          	lui	ra,0x80000
 2da:	00e0d193          	srli	gp,ra,0xe
 2de:	00020eb7          	lui	t4,0x20
 2e2:	4e15                	li	t3,5
 2e4:	1fd19763          	bne	gp,t4,4d2 <fail>

000002e8 <test_6>:
 2e8:	800000b7          	lui	ra,0x80000
 2ec:	00108093          	addi	ra,ra,1 # 80000001 <_gp+0x7ffff279>
 2f0:	01f0d193          	srli	gp,ra,0x1f
 2f4:	4e85                	li	t4,1
 2f6:	4e19                	li	t3,6
 2f8:	1dd19d63          	bne	gp,t4,4d2 <fail>

000002fc <test_7>:
 2fc:	fff00093          	li	ra,-1
 300:	0000d193          	srli	gp,ra,0x0
 304:	fff00e93          	li	t4,-1
 308:	4e1d                	li	t3,7
 30a:	1dd19463          	bne	gp,t4,4d2 <fail>

0000030e <test_8>:
 30e:	fff00093          	li	ra,-1
 312:	0010d193          	srli	gp,ra,0x1
 316:	80000eb7          	lui	t4,0x80000
 31a:	fffe8e93          	addi	t4,t4,-1 # 7fffffff <_gp+0x7ffff277>
 31e:	4e21                	li	t3,8
 320:	1bd19963          	bne	gp,t4,4d2 <fail>

00000324 <test_9>:
 324:	fff00093          	li	ra,-1
 328:	0070d193          	srli	gp,ra,0x7
 32c:	02000eb7          	lui	t4,0x2000
 330:	fffe8e93          	addi	t4,t4,-1 # 1ffffff <_gp+0x1fff277>
 334:	4e25                	li	t3,9
 336:	19d19e63          	bne	gp,t4,4d2 <fail>

0000033a <test_10>:
 33a:	fff00093          	li	ra,-1
 33e:	00e0d193          	srli	gp,ra,0xe
 342:	00040eb7          	lui	t4,0x40
 346:	fffe8e93          	addi	t4,t4,-1 # 3ffff <_gp+0x3f277>
 34a:	4e29                	li	t3,10
 34c:	19d19363          	bne	gp,t4,4d2 <fail>

00000350 <test_11>:
 350:	fff00093          	li	ra,-1
 354:	01f0d193          	srli	gp,ra,0x1f
 358:	4e85                	li	t4,1
 35a:	4e2d                	li	t3,11
 35c:	17d19b63          	bne	gp,t4,4d2 <fail>

00000360 <test_12>:
 360:	212120b7          	lui	ra,0x21212
 364:	12108093          	addi	ra,ra,289 # 21212121 <_gp+0x21211399>
 368:	0000d193          	srli	gp,ra,0x0
 36c:	21212eb7          	lui	t4,0x21212
 370:	121e8e93          	addi	t4,t4,289 # 21212121 <_gp+0x21211399>
 374:	4e31                	li	t3,12
 376:	15d19e63          	bne	gp,t4,4d2 <fail>

0000037a <test_13>:
 37a:	212120b7          	lui	ra,0x21212
 37e:	12108093          	addi	ra,ra,289 # 21212121 <_gp+0x21211399>
 382:	0010d193          	srli	gp,ra,0x1
 386:	10909eb7          	lui	t4,0x10909
 38a:	090e8e93          	addi	t4,t4,144 # 10909090 <_gp+0x10908308>
 38e:	4e35                	li	t3,13
 390:	15d19163          	bne	gp,t4,4d2 <fail>

00000394 <test_14>:
 394:	212120b7          	lui	ra,0x21212
 398:	12108093          	addi	ra,ra,289 # 21212121 <_gp+0x21211399>
 39c:	0070d193          	srli	gp,ra,0x7
 3a0:	00424eb7          	lui	t4,0x424
 3a4:	242e8e93          	addi	t4,t4,578 # 424242 <_gp+0x4234ba>
 3a8:	4e39                	li	t3,14
 3aa:	13d19463          	bne	gp,t4,4d2 <fail>

000003ae <test_15>:
 3ae:	212120b7          	lui	ra,0x21212
 3b2:	12108093          	addi	ra,ra,289 # 21212121 <_gp+0x21211399>
 3b6:	00e0d193          	srli	gp,ra,0xe
 3ba:	00008eb7          	lui	t4,0x8
 3be:	484e8e93          	addi	t4,t4,1156 # 8484 <_gp+0x76fc>
 3c2:	4e3d                	li	t3,15
 3c4:	11d19763          	bne	gp,t4,4d2 <fail>

000003c8 <test_16>:
 3c8:	212120b7          	lui	ra,0x21212
 3cc:	12108093          	addi	ra,ra,289 # 21212121 <_gp+0x21211399>
 3d0:	01f0d193          	srli	gp,ra,0x1f
 3d4:	4e81                	li	t4,0
 3d6:	4e41                	li	t3,16
 3d8:	0fd19d63          	bne	gp,t4,4d2 <fail>

000003dc <test_17>:
 3dc:	800000b7          	lui	ra,0x80000
 3e0:	0070d093          	srli	ra,ra,0x7
 3e4:	01000eb7          	lui	t4,0x1000
 3e8:	4e45                	li	t3,17
 3ea:	0fd09463          	bne	ra,t4,4d2 <fail>

000003ee <test_18>:
 3ee:	4201                	li	tp,0
 3f0:	800000b7          	lui	ra,0x80000
 3f4:	0070d193          	srli	gp,ra,0x7
 3f8:	00018313          	mv	t1,gp
 3fc:	0205                	addi	tp,tp,1
 3fe:	4289                	li	t0,2
 400:	fe5218e3          	bne	tp,t0,3f0 <test_18+0x2>
 404:	01000eb7          	lui	t4,0x1000
 408:	4e49                	li	t3,18
 40a:	0dd31463          	bne	t1,t4,4d2 <fail>

0000040e <test_19>:
 40e:	4201                	li	tp,0
 410:	800000b7          	lui	ra,0x80000
 414:	00e0d193          	srli	gp,ra,0xe
 418:	0001                	nop
 41a:	00018313          	mv	t1,gp
 41e:	0205                	addi	tp,tp,1
 420:	4289                	li	t0,2
 422:	fe5217e3          	bne	tp,t0,410 <test_19+0x2>
 426:	00020eb7          	lui	t4,0x20
 42a:	4e4d                	li	t3,19
 42c:	0bd31363          	bne	t1,t4,4d2 <fail>

00000430 <test_20>:
 430:	4201                	li	tp,0
 432:	800000b7          	lui	ra,0x80000
 436:	00108093          	addi	ra,ra,1 # 80000001 <_gp+0x7ffff279>
 43a:	01f0d193          	srli	gp,ra,0x1f
 43e:	0001                	nop
 440:	0001                	nop
 442:	00018313          	mv	t1,gp
 446:	0205                	addi	tp,tp,1
 448:	4289                	li	t0,2
 44a:	fe5214e3          	bne	tp,t0,432 <test_20+0x2>
 44e:	4e85                	li	t4,1
 450:	4e51                	li	t3,20
 452:	09d31063          	bne	t1,t4,4d2 <fail>

00000456 <test_21>:
 456:	4201                	li	tp,0
 458:	800000b7          	lui	ra,0x80000
 45c:	0070d193          	srli	gp,ra,0x7
 460:	0205                	addi	tp,tp,1
 462:	4289                	li	t0,2
 464:	fe521ae3          	bne	tp,t0,458 <test_21+0x2>
 468:	01000eb7          	lui	t4,0x1000
 46c:	4e55                	li	t3,21
 46e:	07d19263          	bne	gp,t4,4d2 <fail>

00000472 <test_22>:
 472:	4201                	li	tp,0
 474:	800000b7          	lui	ra,0x80000
 478:	0001                	nop
 47a:	00e0d193          	srli	gp,ra,0xe
 47e:	0205                	addi	tp,tp,1
 480:	4289                	li	t0,2
 482:	fe5219e3          	bne	tp,t0,474 <test_22+0x2>
 486:	00020eb7          	lui	t4,0x20
 48a:	4e59                	li	t3,22
 48c:	05d19363          	bne	gp,t4,4d2 <fail>

00000490 <test_23>:
 490:	4201                	li	tp,0
 492:	800000b7          	lui	ra,0x80000
 496:	00108093          	addi	ra,ra,1 # 80000001 <_gp+0x7ffff279>
 49a:	0001                	nop
 49c:	0001                	nop
 49e:	01f0d193          	srli	gp,ra,0x1f
 4a2:	0205                	addi	tp,tp,1
 4a4:	4289                	li	t0,2
 4a6:	fe5216e3          	bne	tp,t0,492 <test_23+0x2>
 4aa:	4e85                	li	t4,1
 4ac:	4e5d                	li	t3,23
 4ae:	03d19263          	bne	gp,t4,4d2 <fail>

000004b2 <test_24>:
 4b2:	00405093          	srli	ra,zero,0x4
 4b6:	4e81                	li	t4,0
 4b8:	4e61                	li	t3,24
 4ba:	01d09c63          	bne	ra,t4,4d2 <fail>

000004be <test_25>:
 4be:	02100093          	li	ra,33
 4c2:	00a0d013          	srli	zero,ra,0xa
 4c6:	4e81                	li	t4,0
 4c8:	4e65                	li	t3,25
 4ca:	01d01463          	bne	zero,t4,4d2 <fail>
 4ce:	01c01863          	bne	zero,t3,4de <pass>

000004d2 <fail>:
 4d2:	0ff0000f          	fence
 4d6:	85f2                	mv	a1,t3
 4d8:	4505                	li	a0,1
 4da:	00000073          	ecall

000004de <pass>:
 4de:	0ff0000f          	fence
 4e2:	85f2                	mv	a1,t3
 4e4:	4501                	li	a0,0
 4e6:	00000073          	ecall

000004ea <ecall>:
 4ea:	00000073          	ecall
	...

00000500 <sc_exit>:
 500:	bf5ff06f          	j	f4 <SIM_EXIT>
 504:	00000013          	nop
 508:	00000013          	nop
 50c:	00000013          	nop
 510:	00000013          	nop
 514:	00000013          	nop
 518:	00000013          	nop
 51c:	00000013          	nop
	...

Disassembly of section .tohost:

00000540 <tohost>:
	...

00000580 <fromhost>:
	...
