
/media/sf_virtualbox_shared/scr1_opensource/build/addi.elf:     file format elf32-littleriscv


Disassembly of section .text.init:

00000000 <SIM_EXIT-0xf4>:
	...

000000f4 <SIM_EXIT>:
  f4:	00000013          	nop

000000f8 <SIM_STOP>:
  f8:	0000006f          	j	f8 <SIM_STOP>
  fc:	ffff                	0xffff
  fe:	ffff                	0xffff
	...

000001c0 <trap_vector>:
 1c0:	34202f73          	csrr	t5,mcause
 1c4:	4fa1                	li	t6,8
 1c6:	03ff0563          	beq	t5,t6,1f0 <_report>
 1ca:	4fa5                	li	t6,9
 1cc:	03ff0263          	beq	t5,t6,1f0 <_report>
 1d0:	4fad                	li	t6,11
 1d2:	01ff0f63          	beq	t5,t6,1f0 <_report>
 1d6:	00000f17          	auipc	t5,0x0
 1da:	e2af0f13          	addi	t5,t5,-470 # 0 <CL_SIZE-0x20>
 1de:	000f0363          	beqz	t5,1e4 <trap_vector+0x24>
 1e2:	8f02                	jr	t5
 1e4:	34202f73          	csrr	t5,mcause
 1e8:	000f5363          	bgez	t5,1ee <handle_exception>
 1ec:	a009                	j	1ee <handle_exception>

000001ee <handle_exception>:
 1ee:	4505                	li	a0,1

000001f0 <_report>:
 1f0:	2d00006f          	j	4c0 <sc_exit>
 1f4:	00000013          	nop
 1f8:	00000013          	nop
 1fc:	00000013          	nop

00000200 <_start>:
 200:	f1402573          	csrr	a0,mhartid
 204:	e101                	bnez	a0,204 <_start+0x4>
 206:	4e01                	li	t3,0
 208:	00000297          	auipc	t0,0x0
 20c:	fb828293          	addi	t0,t0,-72 # 1c0 <trap_vector>
 210:	30529073          	csrw	mtvec,t0
 214:	4505                	li	a0,1
 216:	057e                	slli	a0,a0,0x1f
 218:	00054863          	bltz	a0,228 <_start+0x28>
 21c:	0ff0000f          	fence
 220:	85f2                	mv	a1,t3
 222:	4501                	li	a0,0
 224:	00000073          	ecall
 228:	00000297          	auipc	t0,0x0
 22c:	dd828293          	addi	t0,t0,-552 # 0 <CL_SIZE-0x20>
 230:	00028e63          	beqz	t0,24c <_start+0x4c>
 234:	10529073          	csrw	stvec,t0
 238:	0000b2b7          	lui	t0,0xb
 23c:	10928293          	addi	t0,t0,265 # b109 <_gp+0xa3c1>
 240:	30229073          	csrw	medeleg,t0
 244:	30202373          	csrr	t1,medeleg
 248:	fa6293e3          	bne	t0,t1,1ee <handle_exception>
 24c:	30005073          	csrwi	mstatus,0
 250:	00000297          	auipc	t0,0x0
 254:	05028293          	addi	t0,t0,80 # 2a0 <_run_test>
 258:	34129073          	csrw	mepc,t0
 25c:	f1402573          	csrr	a0,mhartid
 260:	30200073          	mret
	...

Disassembly of section .text:

000002a0 <_run_test>:
 2a0:	4081                	li	ra,0
 2a2:	00008193          	mv	gp,ra
 2a6:	4e81                	li	t4,0
 2a8:	4e09                	li	t3,2
 2aa:	1fd19563          	bne	gp,t4,494 <fail>

000002ae <test_3>:
 2ae:	4085                	li	ra,1
 2b0:	00108193          	addi	gp,ra,1
 2b4:	4e89                	li	t4,2
 2b6:	4e0d                	li	t3,3
 2b8:	1dd19e63          	bne	gp,t4,494 <fail>

000002bc <test_4>:
 2bc:	408d                	li	ra,3
 2be:	00708193          	addi	gp,ra,7
 2c2:	4ea9                	li	t4,10
 2c4:	4e11                	li	t3,4
 2c6:	1dd19763          	bne	gp,t4,494 <fail>

000002ca <test_5>:
 2ca:	4081                	li	ra,0
 2cc:	80008193          	addi	gp,ra,-2048
 2d0:	80000e93          	li	t4,-2048
 2d4:	4e15                	li	t3,5
 2d6:	1bd19f63          	bne	gp,t4,494 <fail>

000002da <test_6>:
 2da:	800000b7          	lui	ra,0x80000
 2de:	00008193          	mv	gp,ra
 2e2:	80000eb7          	lui	t4,0x80000
 2e6:	4e19                	li	t3,6
 2e8:	1bd19663          	bne	gp,t4,494 <fail>

000002ec <test_7>:
 2ec:	800000b7          	lui	ra,0x80000
 2f0:	80008193          	addi	gp,ra,-2048 # 7ffff800 <_gp+0x7fffeab8>
 2f4:	80000eb7          	lui	t4,0x80000
 2f8:	800e8e93          	addi	t4,t4,-2048 # 7ffff800 <_gp+0x7fffeab8>
 2fc:	4e1d                	li	t3,7
 2fe:	19d19b63          	bne	gp,t4,494 <fail>

00000302 <test_8>:
 302:	4081                	li	ra,0
 304:	7ff08193          	addi	gp,ra,2047
 308:	7ff00e93          	li	t4,2047
 30c:	4e21                	li	t3,8
 30e:	19d19363          	bne	gp,t4,494 <fail>

00000312 <test_9>:
 312:	800000b7          	lui	ra,0x80000
 316:	fff08093          	addi	ra,ra,-1 # 7fffffff <_gp+0x7ffff2b7>
 31a:	00008193          	mv	gp,ra
 31e:	80000eb7          	lui	t4,0x80000
 322:	fffe8e93          	addi	t4,t4,-1 # 7fffffff <_gp+0x7ffff2b7>
 326:	4e25                	li	t3,9
 328:	17d19663          	bne	gp,t4,494 <fail>

0000032c <test_10>:
 32c:	800000b7          	lui	ra,0x80000
 330:	fff08093          	addi	ra,ra,-1 # 7fffffff <_gp+0x7ffff2b7>
 334:	7ff08193          	addi	gp,ra,2047
 338:	80000eb7          	lui	t4,0x80000
 33c:	7fee8e93          	addi	t4,t4,2046 # 800007fe <_gp+0x7ffffab6>
 340:	4e29                	li	t3,10
 342:	15d19963          	bne	gp,t4,494 <fail>

00000346 <test_11>:
 346:	800000b7          	lui	ra,0x80000
 34a:	7ff08193          	addi	gp,ra,2047 # 800007ff <_gp+0x7ffffab7>
 34e:	80000eb7          	lui	t4,0x80000
 352:	7ffe8e93          	addi	t4,t4,2047 # 800007ff <_gp+0x7ffffab7>
 356:	4e2d                	li	t3,11
 358:	13d19e63          	bne	gp,t4,494 <fail>

0000035c <test_12>:
 35c:	800000b7          	lui	ra,0x80000
 360:	fff08093          	addi	ra,ra,-1 # 7fffffff <_gp+0x7ffff2b7>
 364:	80008193          	addi	gp,ra,-2048
 368:	7ffffeb7          	lui	t4,0x7ffff
 36c:	7ffe8e93          	addi	t4,t4,2047 # 7ffff7ff <_gp+0x7fffeab7>
 370:	4e31                	li	t3,12
 372:	13d19163          	bne	gp,t4,494 <fail>

00000376 <test_13>:
 376:	4081                	li	ra,0
 378:	fff08193          	addi	gp,ra,-1
 37c:	fff00e93          	li	t4,-1
 380:	4e35                	li	t3,13
 382:	11d19963          	bne	gp,t4,494 <fail>

00000386 <test_14>:
 386:	fff00093          	li	ra,-1
 38a:	00108193          	addi	gp,ra,1
 38e:	4e81                	li	t4,0
 390:	4e39                	li	t3,14
 392:	11d19163          	bne	gp,t4,494 <fail>

00000396 <test_15>:
 396:	fff00093          	li	ra,-1
 39a:	fff08193          	addi	gp,ra,-1
 39e:	ffe00e93          	li	t4,-2
 3a2:	4e3d                	li	t3,15
 3a4:	0fd19863          	bne	gp,t4,494 <fail>

000003a8 <test_16>:
 3a8:	800000b7          	lui	ra,0x80000
 3ac:	fff08093          	addi	ra,ra,-1 # 7fffffff <_gp+0x7ffff2b7>
 3b0:	00108193          	addi	gp,ra,1
 3b4:	80000eb7          	lui	t4,0x80000
 3b8:	4e41                	li	t3,16
 3ba:	0dd19d63          	bne	gp,t4,494 <fail>

000003be <test_17>:
 3be:	40b5                	li	ra,13
 3c0:	00ad                	addi	ra,ra,11
 3c2:	4ee1                	li	t4,24
 3c4:	4e45                	li	t3,17
 3c6:	0dd09763          	bne	ra,t4,494 <fail>

000003ca <test_18>:
 3ca:	4201                	li	tp,0
 3cc:	40b5                	li	ra,13
 3ce:	00b08193          	addi	gp,ra,11
 3d2:	00018313          	mv	t1,gp
 3d6:	0205                	addi	tp,tp,1
 3d8:	4289                	li	t0,2
 3da:	fe5219e3          	bne	tp,t0,3cc <test_18+0x2>
 3de:	4ee1                	li	t4,24
 3e0:	4e49                	li	t3,18
 3e2:	0bd31963          	bne	t1,t4,494 <fail>

000003e6 <test_19>:
 3e6:	4201                	li	tp,0
 3e8:	40b5                	li	ra,13
 3ea:	00a08193          	addi	gp,ra,10
 3ee:	0001                	nop
 3f0:	00018313          	mv	t1,gp
 3f4:	0205                	addi	tp,tp,1
 3f6:	4289                	li	t0,2
 3f8:	fe5218e3          	bne	tp,t0,3e8 <test_19+0x2>
 3fc:	4edd                	li	t4,23
 3fe:	4e4d                	li	t3,19
 400:	09d31a63          	bne	t1,t4,494 <fail>

00000404 <test_20>:
 404:	4201                	li	tp,0
 406:	40b5                	li	ra,13
 408:	00908193          	addi	gp,ra,9
 40c:	0001                	nop
 40e:	0001                	nop
 410:	00018313          	mv	t1,gp
 414:	0205                	addi	tp,tp,1
 416:	4289                	li	t0,2
 418:	fe5217e3          	bne	tp,t0,406 <test_20+0x2>
 41c:	4ed9                	li	t4,22
 41e:	4e51                	li	t3,20
 420:	07d31a63          	bne	t1,t4,494 <fail>

00000424 <test_21>:
 424:	4201                	li	tp,0
 426:	40b5                	li	ra,13
 428:	00b08193          	addi	gp,ra,11
 42c:	0205                	addi	tp,tp,1
 42e:	4289                	li	t0,2
 430:	fe521be3          	bne	tp,t0,426 <test_21+0x2>
 434:	4ee1                	li	t4,24
 436:	4e55                	li	t3,21
 438:	05d19e63          	bne	gp,t4,494 <fail>

0000043c <test_22>:
 43c:	4201                	li	tp,0
 43e:	40b5                	li	ra,13
 440:	0001                	nop
 442:	00a08193          	addi	gp,ra,10
 446:	0205                	addi	tp,tp,1
 448:	4289                	li	t0,2
 44a:	fe521ae3          	bne	tp,t0,43e <test_22+0x2>
 44e:	4edd                	li	t4,23
 450:	4e59                	li	t3,22
 452:	05d19163          	bne	gp,t4,494 <fail>

00000456 <test_23>:
 456:	4201                	li	tp,0
 458:	40b5                	li	ra,13
 45a:	0001                	nop
 45c:	0001                	nop
 45e:	00908193          	addi	gp,ra,9
 462:	0205                	addi	tp,tp,1
 464:	4289                	li	t0,2
 466:	fe5219e3          	bne	tp,t0,458 <test_23+0x2>
 46a:	4ed9                	li	t4,22
 46c:	4e5d                	li	t3,23
 46e:	03d19363          	bne	gp,t4,494 <fail>

00000472 <test_24>:
 472:	02000093          	li	ra,32
 476:	02000e93          	li	t4,32
 47a:	4e61                	li	t3,24
 47c:	01d09c63          	bne	ra,t4,494 <fail>

00000480 <test_25>:
 480:	02100093          	li	ra,33
 484:	03208013          	addi	zero,ra,50
 488:	4e81                	li	t4,0
 48a:	4e65                	li	t3,25
 48c:	01d01463          	bne	zero,t4,494 <fail>
 490:	01c01863          	bne	zero,t3,4a0 <pass>

00000494 <fail>:
 494:	0ff0000f          	fence
 498:	85f2                	mv	a1,t3
 49a:	4505                	li	a0,1
 49c:	00000073          	ecall

000004a0 <pass>:
 4a0:	0ff0000f          	fence
 4a4:	85f2                	mv	a1,t3
 4a6:	4501                	li	a0,0
 4a8:	00000073          	ecall

000004ac <ecall>:
 4ac:	00000073          	ecall
	...

000004c0 <sc_exit>:
 4c0:	c35ff06f          	j	f4 <SIM_EXIT>
 4c4:	00000013          	nop
 4c8:	00000013          	nop
 4cc:	00000013          	nop
 4d0:	00000013          	nop
 4d4:	00000013          	nop
 4d8:	00000013          	nop
 4dc:	00000013          	nop
	...

Disassembly of section .tohost:

00000500 <tohost>:
	...

00000540 <fromhost>:
	...
