
/media/sf_virtualbox_shared/scr1_opensource/build/andi.elf:     file format elf32-littleriscv


Disassembly of section .text.init:

00000000 <SIM_EXIT-0xf4>:
	...

000000f4 <SIM_EXIT>:
  f4:	00000013          	nop

000000f8 <SIM_STOP>:
  f8:	0000006f          	j	f8 <SIM_STOP>
  fc:	ffff                	0xffff
  fe:	ffff                	0xffff
	...

000001c0 <trap_vector>:
 1c0:	34202f73          	csrr	t5,mcause
 1c4:	4fa1                	li	t6,8
 1c6:	03ff0563          	beq	t5,t6,1f0 <_report>
 1ca:	4fa5                	li	t6,9
 1cc:	03ff0263          	beq	t5,t6,1f0 <_report>
 1d0:	4fad                	li	t6,11
 1d2:	01ff0f63          	beq	t5,t6,1f0 <_report>
 1d6:	00000f17          	auipc	t5,0x0
 1da:	e2af0f13          	addi	t5,t5,-470 # 0 <CL_SIZE-0x20>
 1de:	000f0363          	beqz	t5,1e4 <trap_vector+0x24>
 1e2:	8f02                	jr	t5
 1e4:	34202f73          	csrr	t5,mcause
 1e8:	000f5363          	bgez	t5,1ee <handle_exception>
 1ec:	a009                	j	1ee <handle_exception>

000001ee <handle_exception>:
 1ee:	4505                	li	a0,1

000001f0 <_report>:
 1f0:	2500006f          	j	440 <sc_exit>
 1f4:	00000013          	nop
 1f8:	00000013          	nop
 1fc:	00000013          	nop

00000200 <_start>:
 200:	f1402573          	csrr	a0,mhartid
 204:	e101                	bnez	a0,204 <_start+0x4>
 206:	4e01                	li	t3,0
 208:	00000297          	auipc	t0,0x0
 20c:	fb828293          	addi	t0,t0,-72 # 1c0 <trap_vector>
 210:	30529073          	csrw	mtvec,t0
 214:	4505                	li	a0,1
 216:	057e                	slli	a0,a0,0x1f
 218:	00054863          	bltz	a0,228 <_start+0x28>
 21c:	0ff0000f          	fence
 220:	85f2                	mv	a1,t3
 222:	4501                	li	a0,0
 224:	00000073          	ecall
 228:	00000297          	auipc	t0,0x0
 22c:	dd828293          	addi	t0,t0,-552 # 0 <CL_SIZE-0x20>
 230:	00028e63          	beqz	t0,24c <_start+0x4c>
 234:	10529073          	csrw	stvec,t0
 238:	0000b2b7          	lui	t0,0xb
 23c:	10928293          	addi	t0,t0,265 # b109 <_gp+0xa441>
 240:	30229073          	csrw	medeleg,t0
 244:	30202373          	csrr	t1,medeleg
 248:	fa6293e3          	bne	t0,t1,1ee <handle_exception>
 24c:	30005073          	csrwi	mstatus,0
 250:	00000297          	auipc	t0,0x0
 254:	05028293          	addi	t0,t0,80 # 2a0 <_run_test>
 258:	34129073          	csrw	mepc,t0
 25c:	f1402573          	csrr	a0,mhartid
 260:	30200073          	mret
	...

Disassembly of section .text:

000002a0 <_run_test>:
 2a0:	ff0100b7          	lui	ra,0xff010
 2a4:	f0008093          	addi	ra,ra,-256 # ff00ff00 <_gp+0xff00f238>
 2a8:	f0f0f193          	andi	gp,ra,-241
 2ac:	ff010eb7          	lui	t4,0xff010
 2b0:	f00e8e93          	addi	t4,t4,-256 # ff00ff00 <_gp+0xff00f238>
 2b4:	4e09                	li	t3,2
 2b6:	15d19a63          	bne	gp,t4,40a <fail>

000002ba <test_3>:
 2ba:	0ff010b7          	lui	ra,0xff01
 2be:	ff008093          	addi	ra,ra,-16 # ff00ff0 <_gp+0xff00328>
 2c2:	0f00f193          	andi	gp,ra,240
 2c6:	0f000e93          	li	t4,240
 2ca:	4e0d                	li	t3,3
 2cc:	13d19f63          	bne	gp,t4,40a <fail>

000002d0 <test_4>:
 2d0:	00ff00b7          	lui	ra,0xff0
 2d4:	0ff08093          	addi	ra,ra,255 # ff00ff <_gp+0xfef437>
 2d8:	70f0f193          	andi	gp,ra,1807
 2dc:	4ebd                	li	t4,15
 2de:	4e11                	li	t3,4
 2e0:	13d19563          	bne	gp,t4,40a <fail>

000002e4 <test_5>:
 2e4:	f00ff0b7          	lui	ra,0xf00ff
 2e8:	00f08093          	addi	ra,ra,15 # f00ff00f <_gp+0xf00fe347>
 2ec:	0f00f193          	andi	gp,ra,240
 2f0:	4e81                	li	t4,0
 2f2:	4e15                	li	t3,5
 2f4:	11d19b63          	bne	gp,t4,40a <fail>

000002f8 <test_6>:
 2f8:	ff0100b7          	lui	ra,0xff010
 2fc:	f0008093          	addi	ra,ra,-256 # ff00ff00 <_gp+0xff00f238>
 300:	0f00f093          	andi	ra,ra,240
 304:	4e81                	li	t4,0
 306:	4e19                	li	t3,6
 308:	11d09163          	bne	ra,t4,40a <fail>

0000030c <test_7>:
 30c:	4201                	li	tp,0
 30e:	0ff010b7          	lui	ra,0xff01
 312:	ff008093          	addi	ra,ra,-16 # ff00ff0 <_gp+0xff00328>
 316:	70f0f193          	andi	gp,ra,1807
 31a:	00018313          	mv	t1,gp
 31e:	0205                	addi	tp,tp,1
 320:	4289                	li	t0,2
 322:	fe5216e3          	bne	tp,t0,30e <test_7+0x2>
 326:	70000e93          	li	t4,1792
 32a:	4e1d                	li	t3,7
 32c:	0dd31f63          	bne	t1,t4,40a <fail>

00000330 <test_8>:
 330:	4201                	li	tp,0
 332:	00ff00b7          	lui	ra,0xff0
 336:	0ff08093          	addi	ra,ra,255 # ff00ff <_gp+0xfef437>
 33a:	0f00f193          	andi	gp,ra,240
 33e:	0001                	nop
 340:	00018313          	mv	t1,gp
 344:	0205                	addi	tp,tp,1
 346:	4289                	li	t0,2
 348:	fe5215e3          	bne	tp,t0,332 <test_8+0x2>
 34c:	0f000e93          	li	t4,240
 350:	4e21                	li	t3,8
 352:	0bd31c63          	bne	t1,t4,40a <fail>

00000356 <test_9>:
 356:	4201                	li	tp,0
 358:	f00ff0b7          	lui	ra,0xf00ff
 35c:	00f08093          	addi	ra,ra,15 # f00ff00f <_gp+0xf00fe347>
 360:	f0f0f193          	andi	gp,ra,-241
 364:	0001                	nop
 366:	0001                	nop
 368:	00018313          	mv	t1,gp
 36c:	0205                	addi	tp,tp,1
 36e:	4289                	li	t0,2
 370:	fe5214e3          	bne	tp,t0,358 <test_9+0x2>
 374:	f00ffeb7          	lui	t4,0xf00ff
 378:	00fe8e93          	addi	t4,t4,15 # f00ff00f <_gp+0xf00fe347>
 37c:	4e25                	li	t3,9
 37e:	09d31663          	bne	t1,t4,40a <fail>

00000382 <test_10>:
 382:	4201                	li	tp,0
 384:	0ff010b7          	lui	ra,0xff01
 388:	ff008093          	addi	ra,ra,-16 # ff00ff0 <_gp+0xff00328>
 38c:	70f0f193          	andi	gp,ra,1807
 390:	0205                	addi	tp,tp,1
 392:	4289                	li	t0,2
 394:	fe5218e3          	bne	tp,t0,384 <test_10+0x2>
 398:	70000e93          	li	t4,1792
 39c:	4e29                	li	t3,10
 39e:	07d19663          	bne	gp,t4,40a <fail>

000003a2 <test_11>:
 3a2:	4201                	li	tp,0
 3a4:	00ff00b7          	lui	ra,0xff0
 3a8:	0ff08093          	addi	ra,ra,255 # ff00ff <_gp+0xfef437>
 3ac:	0001                	nop
 3ae:	0f00f193          	andi	gp,ra,240
 3b2:	0205                	addi	tp,tp,1
 3b4:	4289                	li	t0,2
 3b6:	fe5217e3          	bne	tp,t0,3a4 <test_11+0x2>
 3ba:	0f000e93          	li	t4,240
 3be:	4e2d                	li	t3,11
 3c0:	05d19563          	bne	gp,t4,40a <fail>

000003c4 <test_12>:
 3c4:	4201                	li	tp,0
 3c6:	f00ff0b7          	lui	ra,0xf00ff
 3ca:	00f08093          	addi	ra,ra,15 # f00ff00f <_gp+0xf00fe347>
 3ce:	0001                	nop
 3d0:	0001                	nop
 3d2:	70f0f193          	andi	gp,ra,1807
 3d6:	0205                	addi	tp,tp,1
 3d8:	4289                	li	t0,2
 3da:	fe5216e3          	bne	tp,t0,3c6 <test_12+0x2>
 3de:	4ebd                	li	t4,15
 3e0:	4e31                	li	t3,12
 3e2:	03d19463          	bne	gp,t4,40a <fail>

000003e6 <test_13>:
 3e6:	0f007093          	andi	ra,zero,240
 3ea:	4e81                	li	t4,0
 3ec:	4e35                	li	t3,13
 3ee:	01d09e63          	bne	ra,t4,40a <fail>

000003f2 <test_14>:
 3f2:	00ff00b7          	lui	ra,0xff0
 3f6:	0ff08093          	addi	ra,ra,255 # ff00ff <_gp+0xfef437>
 3fa:	70f0f013          	andi	zero,ra,1807
 3fe:	4e81                	li	t4,0
 400:	4e39                	li	t3,14
 402:	01d01463          	bne	zero,t4,40a <fail>
 406:	01c01863          	bne	zero,t3,416 <pass>

0000040a <fail>:
 40a:	0ff0000f          	fence
 40e:	85f2                	mv	a1,t3
 410:	4505                	li	a0,1
 412:	00000073          	ecall

00000416 <pass>:
 416:	0ff0000f          	fence
 41a:	85f2                	mv	a1,t3
 41c:	4501                	li	a0,0
 41e:	00000073          	ecall

00000422 <ecall>:
 422:	00000073          	ecall
	...

00000440 <sc_exit>:
 440:	cb5ff06f          	j	f4 <SIM_EXIT>
 444:	00000013          	nop
 448:	00000013          	nop
 44c:	00000013          	nop
 450:	00000013          	nop
 454:	00000013          	nop
 458:	00000013          	nop
 45c:	00000013          	nop
	...

Disassembly of section .tohost:

00000480 <tohost>:
	...

000004c0 <fromhost>:
	...
