
/media/sf_virtualbox_shared/scr1_opensource/build/blt.elf:     file format elf32-littleriscv


Disassembly of section .text.init:

00000000 <SIM_EXIT-0xf4>:
	...

000000f4 <SIM_EXIT>:
  f4:	00000013          	nop

000000f8 <SIM_STOP>:
  f8:	0000006f          	j	f8 <SIM_STOP>
  fc:	ffff                	0xffff
  fe:	ffff                	0xffff
	...

000001c0 <trap_vector>:
 1c0:	34202f73          	csrr	t5,mcause
 1c4:	4fa1                	li	t6,8
 1c6:	03ff0563          	beq	t5,t6,1f0 <_report>
 1ca:	4fa5                	li	t6,9
 1cc:	03ff0263          	beq	t5,t6,1f0 <_report>
 1d0:	4fad                	li	t6,11
 1d2:	01ff0f63          	beq	t5,t6,1f0 <_report>
 1d6:	00000f17          	auipc	t5,0x0
 1da:	e2af0f13          	addi	t5,t5,-470 # 0 <CL_SIZE-0x20>
 1de:	000f0363          	beqz	t5,1e4 <trap_vector+0x24>
 1e2:	8f02                	jr	t5
 1e4:	34202f73          	csrr	t5,mcause
 1e8:	000f5363          	bgez	t5,1ee <handle_exception>
 1ec:	a009                	j	1ee <handle_exception>

000001ee <handle_exception>:
 1ee:	4505                	li	a0,1

000001f0 <_report>:
 1f0:	2b00006f          	j	4a0 <sc_exit>
 1f4:	00000013          	nop
 1f8:	00000013          	nop
 1fc:	00000013          	nop

00000200 <_start>:
 200:	f1402573          	csrr	a0,mhartid
 204:	e101                	bnez	a0,204 <_start+0x4>
 206:	4e01                	li	t3,0
 208:	00000297          	auipc	t0,0x0
 20c:	fb828293          	addi	t0,t0,-72 # 1c0 <trap_vector>
 210:	30529073          	csrw	mtvec,t0
 214:	4505                	li	a0,1
 216:	057e                	slli	a0,a0,0x1f
 218:	00054863          	bltz	a0,228 <_start+0x28>
 21c:	0ff0000f          	fence
 220:	85f2                	mv	a1,t3
 222:	4501                	li	a0,0
 224:	00000073          	ecall
 228:	00000297          	auipc	t0,0x0
 22c:	dd828293          	addi	t0,t0,-552 # 0 <CL_SIZE-0x20>
 230:	00028e63          	beqz	t0,24c <_start+0x4c>
 234:	10529073          	csrw	stvec,t0
 238:	0000b2b7          	lui	t0,0xb
 23c:	10928293          	addi	t0,t0,265 # b109 <_gp+0xa3c1>
 240:	30229073          	csrw	medeleg,t0
 244:	30202373          	csrr	t1,medeleg
 248:	fa6293e3          	bne	t0,t1,1ee <handle_exception>
 24c:	30005073          	csrwi	mstatus,0
 250:	00000297          	auipc	t0,0x0
 254:	05028293          	addi	t0,t0,80 # 2a0 <_run_test>
 258:	34129073          	csrw	mepc,t0
 25c:	f1402573          	csrr	a0,mhartid
 260:	30200073          	mret
	...

Disassembly of section .text:

000002a0 <_run_test>:
 2a0:	4e09                	li	t3,2
 2a2:	4081                	li	ra,0
 2a4:	4105                	li	sp,1
 2a6:	0020c663          	blt	ra,sp,2b2 <_run_test+0x12>
 2aa:	1dc01563          	bne	zero,t3,474 <fail>
 2ae:	01c01663          	bne	zero,t3,2ba <test_3>
 2b2:	fe20cee3          	blt	ra,sp,2ae <_run_test+0xe>
 2b6:	1bc01f63          	bne	zero,t3,474 <fail>

000002ba <test_3>:
 2ba:	4e0d                	li	t3,3
 2bc:	50fd                	li	ra,-1
 2be:	4105                	li	sp,1
 2c0:	0020c663          	blt	ra,sp,2cc <test_3+0x12>
 2c4:	1bc01863          	bne	zero,t3,474 <fail>
 2c8:	01c01663          	bne	zero,t3,2d4 <test_4>
 2cc:	fe20cee3          	blt	ra,sp,2c8 <test_3+0xe>
 2d0:	1bc01263          	bne	zero,t3,474 <fail>

000002d4 <test_4>:
 2d4:	4e11                	li	t3,4
 2d6:	50f9                	li	ra,-2
 2d8:	517d                	li	sp,-1
 2da:	0020c663          	blt	ra,sp,2e6 <test_4+0x12>
 2de:	19c01b63          	bne	zero,t3,474 <fail>
 2e2:	01c01663          	bne	zero,t3,2ee <test_5>
 2e6:	fe20cee3          	blt	ra,sp,2e2 <test_4+0xe>
 2ea:	19c01563          	bne	zero,t3,474 <fail>

000002ee <test_5>:
 2ee:	4e15                	li	t3,5
 2f0:	4085                	li	ra,1
 2f2:	4101                	li	sp,0
 2f4:	0020c463          	blt	ra,sp,2fc <test_5+0xe>
 2f8:	01c01463          	bne	zero,t3,300 <test_5+0x12>
 2fc:	17c01c63          	bne	zero,t3,474 <fail>
 300:	fe20cee3          	blt	ra,sp,2fc <test_5+0xe>

00000304 <test_6>:
 304:	4e19                	li	t3,6
 306:	4085                	li	ra,1
 308:	517d                	li	sp,-1
 30a:	0020c463          	blt	ra,sp,312 <test_6+0xe>
 30e:	01c01463          	bne	zero,t3,316 <test_6+0x12>
 312:	17c01163          	bne	zero,t3,474 <fail>
 316:	fe20cee3          	blt	ra,sp,312 <test_6+0xe>

0000031a <test_7>:
 31a:	4e1d                	li	t3,7
 31c:	50fd                	li	ra,-1
 31e:	5179                	li	sp,-2
 320:	0020c463          	blt	ra,sp,328 <test_7+0xe>
 324:	01c01463          	bne	zero,t3,32c <test_7+0x12>
 328:	15c01663          	bne	zero,t3,474 <fail>
 32c:	fe20cee3          	blt	ra,sp,328 <test_7+0xe>

00000330 <test_8>:
 330:	4e21                	li	t3,8
 332:	4085                	li	ra,1
 334:	5179                	li	sp,-2
 336:	0020c463          	blt	ra,sp,33e <test_8+0xe>
 33a:	01c01463          	bne	zero,t3,342 <test_8+0x12>
 33e:	13c01b63          	bne	zero,t3,474 <fail>
 342:	fe20cee3          	blt	ra,sp,33e <test_8+0xe>

00000346 <test_9>:
 346:	4e25                	li	t3,9
 348:	4201                	li	tp,0
 34a:	4081                	li	ra,0
 34c:	517d                	li	sp,-1
 34e:	1220c363          	blt	ra,sp,474 <fail>
 352:	0205                	addi	tp,tp,1
 354:	4289                	li	t0,2
 356:	fe521ae3          	bne	tp,t0,34a <test_9+0x4>

0000035a <test_10>:
 35a:	4e29                	li	t3,10
 35c:	4201                	li	tp,0
 35e:	4081                	li	ra,0
 360:	517d                	li	sp,-1
 362:	0001                	nop
 364:	1020c863          	blt	ra,sp,474 <fail>
 368:	0205                	addi	tp,tp,1
 36a:	4289                	li	t0,2
 36c:	fe5219e3          	bne	tp,t0,35e <test_10+0x4>

00000370 <test_11>:
 370:	4e2d                	li	t3,11
 372:	4201                	li	tp,0
 374:	4081                	li	ra,0
 376:	517d                	li	sp,-1
 378:	0001                	nop
 37a:	0001                	nop
 37c:	0e20cc63          	blt	ra,sp,474 <fail>
 380:	0205                	addi	tp,tp,1
 382:	4289                	li	t0,2
 384:	fe5218e3          	bne	tp,t0,374 <test_11+0x4>

00000388 <test_12>:
 388:	4e31                	li	t3,12
 38a:	4201                	li	tp,0
 38c:	4081                	li	ra,0
 38e:	0001                	nop
 390:	517d                	li	sp,-1
 392:	0e20c163          	blt	ra,sp,474 <fail>
 396:	0205                	addi	tp,tp,1
 398:	4289                	li	t0,2
 39a:	fe5219e3          	bne	tp,t0,38c <test_12+0x4>

0000039e <test_13>:
 39e:	4e35                	li	t3,13
 3a0:	4201                	li	tp,0
 3a2:	4081                	li	ra,0
 3a4:	0001                	nop
 3a6:	517d                	li	sp,-1
 3a8:	0001                	nop
 3aa:	0c20c563          	blt	ra,sp,474 <fail>
 3ae:	0205                	addi	tp,tp,1
 3b0:	4289                	li	t0,2
 3b2:	fe5218e3          	bne	tp,t0,3a2 <test_13+0x4>

000003b6 <test_14>:
 3b6:	4e39                	li	t3,14
 3b8:	4201                	li	tp,0
 3ba:	4081                	li	ra,0
 3bc:	0001                	nop
 3be:	0001                	nop
 3c0:	517d                	li	sp,-1
 3c2:	0a20c963          	blt	ra,sp,474 <fail>
 3c6:	0205                	addi	tp,tp,1
 3c8:	4289                	li	t0,2
 3ca:	fe5218e3          	bne	tp,t0,3ba <test_14+0x4>

000003ce <test_15>:
 3ce:	4e3d                	li	t3,15
 3d0:	4201                	li	tp,0
 3d2:	4081                	li	ra,0
 3d4:	517d                	li	sp,-1
 3d6:	0820cf63          	blt	ra,sp,474 <fail>
 3da:	0205                	addi	tp,tp,1
 3dc:	4289                	li	t0,2
 3de:	fe521ae3          	bne	tp,t0,3d2 <test_15+0x4>

000003e2 <test_16>:
 3e2:	4e41                	li	t3,16
 3e4:	4201                	li	tp,0
 3e6:	4081                	li	ra,0
 3e8:	517d                	li	sp,-1
 3ea:	0001                	nop
 3ec:	0820c463          	blt	ra,sp,474 <fail>
 3f0:	0205                	addi	tp,tp,1
 3f2:	4289                	li	t0,2
 3f4:	fe5219e3          	bne	tp,t0,3e6 <test_16+0x4>

000003f8 <test_17>:
 3f8:	4e45                	li	t3,17
 3fa:	4201                	li	tp,0
 3fc:	4081                	li	ra,0
 3fe:	517d                	li	sp,-1
 400:	0001                	nop
 402:	0001                	nop
 404:	0620c863          	blt	ra,sp,474 <fail>
 408:	0205                	addi	tp,tp,1
 40a:	4289                	li	t0,2
 40c:	fe5218e3          	bne	tp,t0,3fc <test_17+0x4>

00000410 <test_18>:
 410:	4e49                	li	t3,18
 412:	4201                	li	tp,0
 414:	4081                	li	ra,0
 416:	0001                	nop
 418:	517d                	li	sp,-1
 41a:	0420cd63          	blt	ra,sp,474 <fail>
 41e:	0205                	addi	tp,tp,1
 420:	4289                	li	t0,2
 422:	fe5219e3          	bne	tp,t0,414 <test_18+0x4>

00000426 <test_19>:
 426:	4e4d                	li	t3,19
 428:	4201                	li	tp,0
 42a:	4081                	li	ra,0
 42c:	0001                	nop
 42e:	517d                	li	sp,-1
 430:	0001                	nop
 432:	0420c163          	blt	ra,sp,474 <fail>
 436:	0205                	addi	tp,tp,1
 438:	4289                	li	t0,2
 43a:	fe5218e3          	bne	tp,t0,42a <test_19+0x4>

0000043e <test_20>:
 43e:	4e51                	li	t3,20
 440:	4201                	li	tp,0
 442:	4081                	li	ra,0
 444:	0001                	nop
 446:	0001                	nop
 448:	517d                	li	sp,-1
 44a:	0220c563          	blt	ra,sp,474 <fail>
 44e:	0205                	addi	tp,tp,1
 450:	4289                	li	t0,2
 452:	fe5218e3          	bne	tp,t0,442 <test_20+0x4>

00000456 <test_21>:
 456:	4085                	li	ra,1
 458:	00104663          	bgtz	ra,464 <test_21+0xe>
 45c:	0085                	addi	ra,ra,1
 45e:	0085                	addi	ra,ra,1
 460:	0085                	addi	ra,ra,1
 462:	0085                	addi	ra,ra,1
 464:	0085                	addi	ra,ra,1
 466:	0085                	addi	ra,ra,1
 468:	4e8d                	li	t4,3
 46a:	4e55                	li	t3,21
 46c:	01d09463          	bne	ra,t4,474 <fail>
 470:	01c01863          	bne	zero,t3,480 <pass>

00000474 <fail>:
 474:	0ff0000f          	fence
 478:	85f2                	mv	a1,t3
 47a:	4505                	li	a0,1
 47c:	00000073          	ecall

00000480 <pass>:
 480:	0ff0000f          	fence
 484:	85f2                	mv	a1,t3
 486:	4501                	li	a0,0
 488:	00000073          	ecall

0000048c <ecall>:
 48c:	00000073          	ecall
	...

000004a0 <sc_exit>:
 4a0:	c55ff06f          	j	f4 <SIM_EXIT>
 4a4:	00000013          	nop
 4a8:	00000013          	nop
 4ac:	00000013          	nop
 4b0:	00000013          	nop
 4b4:	00000013          	nop
 4b8:	00000013          	nop
 4bc:	00000013          	nop
	...

Disassembly of section .tohost:

00000500 <tohost>:
	...

00000540 <fromhost>:
	...
