
/media/sf_virtualbox_shared/scr1_opensource/build/bltu.elf:     file format elf32-littleriscv


Disassembly of section .text.init:

00000000 <SIM_EXIT-0xf4>:
	...

000000f4 <SIM_EXIT>:
  f4:	00000013          	nop

000000f8 <SIM_STOP>:
  f8:	0000006f          	j	f8 <SIM_STOP>
  fc:	ffff                	0xffff
  fe:	ffff                	0xffff
	...

000001c0 <trap_vector>:
 1c0:	34202f73          	csrr	t5,mcause
 1c4:	4fa1                	li	t6,8
 1c6:	03ff0563          	beq	t5,t6,1f0 <_report>
 1ca:	4fa5                	li	t6,9
 1cc:	03ff0263          	beq	t5,t6,1f0 <_report>
 1d0:	4fad                	li	t6,11
 1d2:	01ff0f63          	beq	t5,t6,1f0 <_report>
 1d6:	00000f17          	auipc	t5,0x0
 1da:	e2af0f13          	addi	t5,t5,-470 # 0 <CL_SIZE-0x20>
 1de:	000f0363          	beqz	t5,1e4 <trap_vector+0x24>
 1e2:	8f02                	jr	t5
 1e4:	34202f73          	csrr	t5,mcause
 1e8:	000f5363          	bgez	t5,1ee <handle_exception>
 1ec:	a009                	j	1ee <handle_exception>

000001ee <handle_exception>:
 1ee:	4505                	li	a0,1

000001f0 <_report>:
 1f0:	3300006f          	j	520 <sc_exit>
 1f4:	00000013          	nop
 1f8:	00000013          	nop
 1fc:	00000013          	nop

00000200 <_start>:
 200:	f1402573          	csrr	a0,mhartid
 204:	e101                	bnez	a0,204 <_start+0x4>
 206:	4e01                	li	t3,0
 208:	00000297          	auipc	t0,0x0
 20c:	fb828293          	addi	t0,t0,-72 # 1c0 <trap_vector>
 210:	30529073          	csrw	mtvec,t0
 214:	4505                	li	a0,1
 216:	057e                	slli	a0,a0,0x1f
 218:	00054863          	bltz	a0,228 <_start+0x28>
 21c:	0ff0000f          	fence
 220:	85f2                	mv	a1,t3
 222:	4501                	li	a0,0
 224:	00000073          	ecall
 228:	00000297          	auipc	t0,0x0
 22c:	dd828293          	addi	t0,t0,-552 # 0 <CL_SIZE-0x20>
 230:	00028e63          	beqz	t0,24c <_start+0x4c>
 234:	10529073          	csrw	stvec,t0
 238:	0000b2b7          	lui	t0,0xb
 23c:	10928293          	addi	t0,t0,265 # b109 <_gp+0xa341>
 240:	30229073          	csrw	medeleg,t0
 244:	30202373          	csrr	t1,medeleg
 248:	fa6293e3          	bne	t0,t1,1ee <handle_exception>
 24c:	30005073          	csrwi	mstatus,0
 250:	00000297          	auipc	t0,0x0
 254:	05028293          	addi	t0,t0,80 # 2a0 <_run_test>
 258:	34129073          	csrw	mepc,t0
 25c:	f1402573          	csrr	a0,mhartid
 260:	30200073          	mret
	...

Disassembly of section .text:

000002a0 <_run_test>:
 2a0:	4e09                	li	t3,2
 2a2:	4081                	li	ra,0
 2a4:	4105                	li	sp,1
 2a6:	0020e663          	bltu	ra,sp,2b2 <_run_test+0x12>
 2aa:	23c01f63          	bne	zero,t3,4e8 <fail>
 2ae:	01c01663          	bne	zero,t3,2ba <test_3>
 2b2:	fe20eee3          	bltu	ra,sp,2ae <_run_test+0xe>
 2b6:	23c01963          	bne	zero,t3,4e8 <fail>

000002ba <test_3>:
 2ba:	4e0d                	li	t3,3
 2bc:	ffe00093          	li	ra,-2
 2c0:	fff00113          	li	sp,-1
 2c4:	0020e663          	bltu	ra,sp,2d0 <test_3+0x16>
 2c8:	23c01063          	bne	zero,t3,4e8 <fail>
 2cc:	01c01663          	bne	zero,t3,2d8 <test_4>
 2d0:	fe20eee3          	bltu	ra,sp,2cc <test_3+0x12>
 2d4:	21c01a63          	bne	zero,t3,4e8 <fail>

000002d8 <test_4>:
 2d8:	4e11                	li	t3,4
 2da:	4081                	li	ra,0
 2dc:	fff00113          	li	sp,-1
 2e0:	0020e663          	bltu	ra,sp,2ec <test_4+0x14>
 2e4:	21c01263          	bne	zero,t3,4e8 <fail>
 2e8:	01c01663          	bne	zero,t3,2f4 <test_5>
 2ec:	fe20eee3          	bltu	ra,sp,2e8 <test_4+0x10>
 2f0:	1fc01c63          	bne	zero,t3,4e8 <fail>

000002f4 <test_5>:
 2f4:	4e15                	li	t3,5
 2f6:	4085                	li	ra,1
 2f8:	4101                	li	sp,0
 2fa:	0020e463          	bltu	ra,sp,302 <test_5+0xe>
 2fe:	01c01463          	bne	zero,t3,306 <test_5+0x12>
 302:	1fc01363          	bne	zero,t3,4e8 <fail>
 306:	fe20eee3          	bltu	ra,sp,302 <test_5+0xe>

0000030a <test_6>:
 30a:	4e19                	li	t3,6
 30c:	fff00093          	li	ra,-1
 310:	ffe00113          	li	sp,-2
 314:	0020e463          	bltu	ra,sp,31c <test_6+0x12>
 318:	01c01463          	bne	zero,t3,320 <test_6+0x16>
 31c:	1dc01663          	bne	zero,t3,4e8 <fail>
 320:	fe20eee3          	bltu	ra,sp,31c <test_6+0x12>

00000324 <test_7>:
 324:	4e1d                	li	t3,7
 326:	fff00093          	li	ra,-1
 32a:	4101                	li	sp,0
 32c:	0020e463          	bltu	ra,sp,334 <test_7+0x10>
 330:	01c01463          	bne	zero,t3,338 <test_7+0x14>
 334:	1bc01a63          	bne	zero,t3,4e8 <fail>
 338:	fe20eee3          	bltu	ra,sp,334 <test_7+0x10>

0000033c <test_8>:
 33c:	4e21                	li	t3,8
 33e:	800000b7          	lui	ra,0x80000
 342:	80000137          	lui	sp,0x80000
 346:	fff10113          	addi	sp,sp,-1 # 7fffffff <_gp+0x7ffff237>
 34a:	0020e463          	bltu	ra,sp,352 <test_8+0x16>
 34e:	01c01463          	bne	zero,t3,356 <test_8+0x1a>
 352:	19c01b63          	bne	zero,t3,4e8 <fail>
 356:	fe20eee3          	bltu	ra,sp,352 <test_8+0x16>

0000035a <test_9>:
 35a:	4e25                	li	t3,9
 35c:	4201                	li	tp,0
 35e:	f00000b7          	lui	ra,0xf0000
 362:	f0000137          	lui	sp,0xf0000
 366:	fff10113          	addi	sp,sp,-1 # efffffff <_gp+0xeffff237>
 36a:	1620ef63          	bltu	ra,sp,4e8 <fail>
 36e:	0205                	addi	tp,tp,1
 370:	4289                	li	t0,2
 372:	fe5216e3          	bne	tp,t0,35e <test_9+0x4>

00000376 <test_10>:
 376:	4e29                	li	t3,10
 378:	4201                	li	tp,0
 37a:	f00000b7          	lui	ra,0xf0000
 37e:	f0000137          	lui	sp,0xf0000
 382:	fff10113          	addi	sp,sp,-1 # efffffff <_gp+0xeffff237>
 386:	0001                	nop
 388:	1620e063          	bltu	ra,sp,4e8 <fail>
 38c:	0205                	addi	tp,tp,1
 38e:	4289                	li	t0,2
 390:	fe5215e3          	bne	tp,t0,37a <test_10+0x4>

00000394 <test_11>:
 394:	4e2d                	li	t3,11
 396:	4201                	li	tp,0
 398:	f00000b7          	lui	ra,0xf0000
 39c:	f0000137          	lui	sp,0xf0000
 3a0:	fff10113          	addi	sp,sp,-1 # efffffff <_gp+0xeffff237>
 3a4:	0001                	nop
 3a6:	0001                	nop
 3a8:	1420e063          	bltu	ra,sp,4e8 <fail>
 3ac:	0205                	addi	tp,tp,1
 3ae:	4289                	li	t0,2
 3b0:	fe5214e3          	bne	tp,t0,398 <test_11+0x4>

000003b4 <test_12>:
 3b4:	4e31                	li	t3,12
 3b6:	4201                	li	tp,0
 3b8:	f00000b7          	lui	ra,0xf0000
 3bc:	0001                	nop
 3be:	f0000137          	lui	sp,0xf0000
 3c2:	fff10113          	addi	sp,sp,-1 # efffffff <_gp+0xeffff237>
 3c6:	1220e163          	bltu	ra,sp,4e8 <fail>
 3ca:	0205                	addi	tp,tp,1
 3cc:	4289                	li	t0,2
 3ce:	fe5215e3          	bne	tp,t0,3b8 <test_12+0x4>

000003d2 <test_13>:
 3d2:	4e35                	li	t3,13
 3d4:	4201                	li	tp,0
 3d6:	f00000b7          	lui	ra,0xf0000
 3da:	0001                	nop
 3dc:	f0000137          	lui	sp,0xf0000
 3e0:	fff10113          	addi	sp,sp,-1 # efffffff <_gp+0xeffff237>
 3e4:	0001                	nop
 3e6:	1020e163          	bltu	ra,sp,4e8 <fail>
 3ea:	0205                	addi	tp,tp,1
 3ec:	4289                	li	t0,2
 3ee:	fe5214e3          	bne	tp,t0,3d6 <test_13+0x4>

000003f2 <test_14>:
 3f2:	4e39                	li	t3,14
 3f4:	4201                	li	tp,0
 3f6:	f00000b7          	lui	ra,0xf0000
 3fa:	0001                	nop
 3fc:	0001                	nop
 3fe:	f0000137          	lui	sp,0xf0000
 402:	fff10113          	addi	sp,sp,-1 # efffffff <_gp+0xeffff237>
 406:	0e20e163          	bltu	ra,sp,4e8 <fail>
 40a:	0205                	addi	tp,tp,1
 40c:	4289                	li	t0,2
 40e:	fe5214e3          	bne	tp,t0,3f6 <test_14+0x4>

00000412 <test_15>:
 412:	4e3d                	li	t3,15
 414:	4201                	li	tp,0
 416:	f00000b7          	lui	ra,0xf0000
 41a:	f0000137          	lui	sp,0xf0000
 41e:	fff10113          	addi	sp,sp,-1 # efffffff <_gp+0xeffff237>
 422:	0c20e363          	bltu	ra,sp,4e8 <fail>
 426:	0205                	addi	tp,tp,1
 428:	4289                	li	t0,2
 42a:	fe5216e3          	bne	tp,t0,416 <test_15+0x4>

0000042e <test_16>:
 42e:	4e41                	li	t3,16
 430:	4201                	li	tp,0
 432:	f00000b7          	lui	ra,0xf0000
 436:	f0000137          	lui	sp,0xf0000
 43a:	fff10113          	addi	sp,sp,-1 # efffffff <_gp+0xeffff237>
 43e:	0001                	nop
 440:	0a20e463          	bltu	ra,sp,4e8 <fail>
 444:	0205                	addi	tp,tp,1
 446:	4289                	li	t0,2
 448:	fe5215e3          	bne	tp,t0,432 <test_16+0x4>

0000044c <test_17>:
 44c:	4e45                	li	t3,17
 44e:	4201                	li	tp,0
 450:	f00000b7          	lui	ra,0xf0000
 454:	f0000137          	lui	sp,0xf0000
 458:	fff10113          	addi	sp,sp,-1 # efffffff <_gp+0xeffff237>
 45c:	0001                	nop
 45e:	0001                	nop
 460:	0820e463          	bltu	ra,sp,4e8 <fail>
 464:	0205                	addi	tp,tp,1
 466:	4289                	li	t0,2
 468:	fe5214e3          	bne	tp,t0,450 <test_17+0x4>

0000046c <test_18>:
 46c:	4e49                	li	t3,18
 46e:	4201                	li	tp,0
 470:	f00000b7          	lui	ra,0xf0000
 474:	0001                	nop
 476:	f0000137          	lui	sp,0xf0000
 47a:	fff10113          	addi	sp,sp,-1 # efffffff <_gp+0xeffff237>
 47e:	0620e563          	bltu	ra,sp,4e8 <fail>
 482:	0205                	addi	tp,tp,1
 484:	4289                	li	t0,2
 486:	fe5215e3          	bne	tp,t0,470 <test_18+0x4>

0000048a <test_19>:
 48a:	4e4d                	li	t3,19
 48c:	4201                	li	tp,0
 48e:	f00000b7          	lui	ra,0xf0000
 492:	0001                	nop
 494:	f0000137          	lui	sp,0xf0000
 498:	fff10113          	addi	sp,sp,-1 # efffffff <_gp+0xeffff237>
 49c:	0001                	nop
 49e:	0420e563          	bltu	ra,sp,4e8 <fail>
 4a2:	0205                	addi	tp,tp,1
 4a4:	4289                	li	t0,2
 4a6:	fe5214e3          	bne	tp,t0,48e <test_19+0x4>

000004aa <test_20>:
 4aa:	4e51                	li	t3,20
 4ac:	4201                	li	tp,0
 4ae:	f00000b7          	lui	ra,0xf0000
 4b2:	0001                	nop
 4b4:	0001                	nop
 4b6:	f0000137          	lui	sp,0xf0000
 4ba:	fff10113          	addi	sp,sp,-1 # efffffff <_gp+0xeffff237>
 4be:	0220e563          	bltu	ra,sp,4e8 <fail>
 4c2:	0205                	addi	tp,tp,1
 4c4:	4289                	li	t0,2
 4c6:	fe5214e3          	bne	tp,t0,4ae <test_20+0x4>

000004ca <test_21>:
 4ca:	4085                	li	ra,1
 4cc:	00106663          	bltu	zero,ra,4d8 <test_21+0xe>
 4d0:	0085                	addi	ra,ra,1
 4d2:	0085                	addi	ra,ra,1
 4d4:	0085                	addi	ra,ra,1
 4d6:	0085                	addi	ra,ra,1
 4d8:	0085                	addi	ra,ra,1
 4da:	0085                	addi	ra,ra,1
 4dc:	4e8d                	li	t4,3
 4de:	4e55                	li	t3,21
 4e0:	01d09463          	bne	ra,t4,4e8 <fail>
 4e4:	01c01863          	bne	zero,t3,4f4 <pass>

000004e8 <fail>:
 4e8:	0ff0000f          	fence
 4ec:	85f2                	mv	a1,t3
 4ee:	4505                	li	a0,1
 4f0:	00000073          	ecall

000004f4 <pass>:
 4f4:	0ff0000f          	fence
 4f8:	85f2                	mv	a1,t3
 4fa:	4501                	li	a0,0
 4fc:	00000073          	ecall

00000500 <ecall>:
 500:	00000073          	ecall
	...

00000520 <sc_exit>:
 520:	bd5ff06f          	j	f4 <SIM_EXIT>
 524:	00000013          	nop
 528:	00000013          	nop
 52c:	00000013          	nop
 530:	00000013          	nop
 534:	00000013          	nop
 538:	00000013          	nop
 53c:	00000013          	nop
	...

Disassembly of section .tohost:

00000580 <tohost>:
	...

000005c0 <fromhost>:
	...
