
/media/sf_virtualbox_shared/scr1_opensource/build/dhrystone21.elf:     file format elf32-littleriscv


Disassembly of section .text.init:

00000000 <SIM_EXIT-0xf4>:
	...

000000f4 <SIM_EXIT>:
  f4:	00000013          	nop

000000f8 <SIM_STOP>:
  f8:	0000006f          	j	f8 <SIM_STOP>
  fc:	ffff                	0xffff
  fe:	ffff                	0xffff

Disassembly of section .text:

00000100 <machine_trap_entry-0xc0>:
	...

000001c0 <machine_trap_entry>:
     1c0:	0b00006f          	j	270 <trap_entry>
     1c4:	00000013          	nop
     1c8:	00000013          	nop
     1cc:	00000013          	nop
     1d0:	00000013          	nop
     1d4:	00000013          	nop
     1d8:	00000013          	nop
     1dc:	00000013          	nop
     1e0:	00000013          	nop
     1e4:	00000013          	nop
     1e8:	00000013          	nop
     1ec:	00000013          	nop
     1f0:	00000013          	nop
     1f4:	00000013          	nop
     1f8:	00000013          	nop
     1fc:	00000013          	nop

00000200 <_start>:
     200:	00004597          	auipc	a1,0x4
     204:	a0058593          	addi	a1,a1,-1536 # 3c00 <__BSS_START__>
     208:	00006617          	auipc	a2,0x6
     20c:	27860613          	addi	a2,a2,632 # 6480 <__BSS_END__>
     210:	00c0006f          	j	21c <_start+0x1c>
     214:	0005a023          	sw	zero,0(a1)
     218:	00458593          	addi	a1,a1,4
     21c:	fec59ce3          	bne	a1,a2,214 <_start+0x14>
     220:	00004197          	auipc	gp,0x4
     224:	3c018193          	addi	gp,gp,960 # 45e0 <_gp+0x220>
     228:	00010117          	auipc	sp,0x10
     22c:	dd810113          	addi	sp,sp,-552 # 10000 <__C_STACK_TOP__>
     230:	004902b7          	lui	t0,0x490
     234:	00100313          	li	t1,1
     238:	0062a023          	sw	t1,0(t0) # 490000 <__C_STACK_TOP__+0x480000>
     23c:	004902b7          	lui	t0,0x490
     240:	00428293          	addi	t0,t0,4 # 490004 <__C_STACK_TOP__+0x480004>
     244:	06300313          	li	t1,99
     248:	0062a023          	sw	t1,0(t0)
     24c:	004902b7          	lui	t0,0x490
     250:	01028293          	addi	t0,t0,16 # 490010 <__C_STACK_TOP__+0x480010>
     254:	fff00313          	li	t1,-1
     258:	0062a023          	sw	t1,0(t0)
     25c:	0062a223          	sw	t1,4(t0)
     260:	00000513          	li	a0,0
     264:	00000593          	li	a1,0
     268:	68d000ef          	jal	ra,10f4 <main>
     26c:	1180006f          	j	384 <handle_trap>

00000270 <trap_entry>:
     270:	ef010113          	addi	sp,sp,-272
     274:	00112223          	sw	ra,4(sp)
     278:	00212423          	sw	sp,8(sp)
     27c:	00312623          	sw	gp,12(sp)
     280:	00412823          	sw	tp,16(sp)
     284:	00512a23          	sw	t0,20(sp)
     288:	00612c23          	sw	t1,24(sp)
     28c:	00712e23          	sw	t2,28(sp)
     290:	02812023          	sw	s0,32(sp)
     294:	02912223          	sw	s1,36(sp)
     298:	02a12423          	sw	a0,40(sp)
     29c:	02b12623          	sw	a1,44(sp)
     2a0:	02c12823          	sw	a2,48(sp)
     2a4:	02d12a23          	sw	a3,52(sp)
     2a8:	02e12c23          	sw	a4,56(sp)
     2ac:	02f12e23          	sw	a5,60(sp)
     2b0:	05012023          	sw	a6,64(sp)
     2b4:	05112223          	sw	a7,68(sp)
     2b8:	05212423          	sw	s2,72(sp)
     2bc:	05312623          	sw	s3,76(sp)
     2c0:	05412823          	sw	s4,80(sp)
     2c4:	05512a23          	sw	s5,84(sp)
     2c8:	05612c23          	sw	s6,88(sp)
     2cc:	05712e23          	sw	s7,92(sp)
     2d0:	07812023          	sw	s8,96(sp)
     2d4:	07912223          	sw	s9,100(sp)
     2d8:	07a12423          	sw	s10,104(sp)
     2dc:	07b12623          	sw	s11,108(sp)
     2e0:	07c12823          	sw	t3,112(sp)
     2e4:	07d12a23          	sw	t4,116(sp)
     2e8:	07e12c23          	sw	t5,120(sp)
     2ec:	07f12e23          	sw	t6,124(sp)
     2f0:	34202573          	csrr	a0,mcause
     2f4:	341025f3          	csrr	a1,mepc
     2f8:	00010613          	mv	a2,sp
     2fc:	088000ef          	jal	ra,384 <handle_trap>
     300:	00412083          	lw	ra,4(sp)
     304:	00812103          	lw	sp,8(sp)
     308:	00c12183          	lw	gp,12(sp)
     30c:	01012203          	lw	tp,16(sp)
     310:	01412283          	lw	t0,20(sp)
     314:	01812303          	lw	t1,24(sp)
     318:	01c12383          	lw	t2,28(sp)
     31c:	02012403          	lw	s0,32(sp)
     320:	02412483          	lw	s1,36(sp)
     324:	02812503          	lw	a0,40(sp)
     328:	02c12583          	lw	a1,44(sp)
     32c:	03012603          	lw	a2,48(sp)
     330:	03412683          	lw	a3,52(sp)
     334:	03812703          	lw	a4,56(sp)
     338:	03c12783          	lw	a5,60(sp)
     33c:	04012803          	lw	a6,64(sp)
     340:	04412883          	lw	a7,68(sp)
     344:	04812903          	lw	s2,72(sp)
     348:	04c12983          	lw	s3,76(sp)
     34c:	05012a03          	lw	s4,80(sp)
     350:	05412a83          	lw	s5,84(sp)
     354:	05812b03          	lw	s6,88(sp)
     358:	05c12b83          	lw	s7,92(sp)
     35c:	06012c03          	lw	s8,96(sp)
     360:	06412c83          	lw	s9,100(sp)
     364:	06812d03          	lw	s10,104(sp)
     368:	06c12d83          	lw	s11,108(sp)
     36c:	07012e03          	lw	t3,112(sp)
     370:	07412e83          	lw	t4,116(sp)
     374:	07812f03          	lw	t5,120(sp)
     378:	07c12f83          	lw	t6,124(sp)
     37c:	11010113          	addi	sp,sp,272
     380:	30200073          	mret

00000384 <handle_trap>:
     384:	d71ff06f          	j	f4 <SIM_EXIT>
	...

000003c0 <printf_putch>:
     3c0:	04022803          	lw	a6,64(tp) # 40 <buflen.1776>
     3c4:	00020293          	mv	t0,tp
     3c8:	00180713          	addi	a4,a6,1
     3cc:	01028333          	add	t1,t0,a6
     3d0:	04e22023          	sw	a4,64(tp) # 40 <buflen.1776>
     3d4:	00a30023          	sb	a0,0(t1)
     3d8:	00a00393          	li	t2,10
     3dc:	00750863          	beq	a0,t2,3ec <printf_putch+0x2c>
     3e0:	04000513          	li	a0,64
     3e4:	00a70663          	beq	a4,a0,3f0 <printf_putch+0x30>
     3e8:	00008067          	ret
     3ec:	10e05463          	blez	a4,4f4 <STACK_SIZE+0xf4>
     3f0:	00777e13          	andi	t3,a4,7
     3f4:	00020793          	mv	a5,tp
     3f8:	f0000eb7          	lui	t4,0xf0000
     3fc:	fff70f13          	addi	t5,a4,-1
     400:	0a0e0463          	beqz	t3,4a8 <STACK_SIZE+0xa8>
     404:	00100f93          	li	t6,1
     408:	09fe0663          	beq	t3,t6,494 <STACK_SIZE+0x94>
     40c:	00200593          	li	a1,2
     410:	06be0a63          	beq	t3,a1,484 <STACK_SIZE+0x84>
     414:	00300813          	li	a6,3
     418:	050e0e63          	beq	t3,a6,474 <STACK_SIZE+0x74>
     41c:	00400693          	li	a3,4
     420:	04de0263          	beq	t3,a3,464 <STACK_SIZE+0x64>
     424:	00500293          	li	t0,5
     428:	025e0663          	beq	t3,t0,454 <STACK_SIZE+0x54>
     42c:	00600313          	li	t1,6
     430:	006e0a63          	beq	t3,t1,444 <STACK_SIZE+0x44>
     434:	0007c383          	lbu	t2,0(a5)
     438:	000f0713          	mv	a4,t5
     43c:	00178793          	addi	a5,a5,1
     440:	007e8023          	sb	t2,0(t4) # f0000000 <__C_STACK_TOP__+0xefff0000>
     444:	0007c503          	lbu	a0,0(a5)
     448:	fff70713          	addi	a4,a4,-1
     44c:	00178793          	addi	a5,a5,1
     450:	00ae8023          	sb	a0,0(t4)
     454:	0007c883          	lbu	a7,0(a5)
     458:	fff70713          	addi	a4,a4,-1
     45c:	00178793          	addi	a5,a5,1
     460:	011e8023          	sb	a7,0(t4)
     464:	0007ce03          	lbu	t3,0(a5)
     468:	fff70713          	addi	a4,a4,-1
     46c:	00178793          	addi	a5,a5,1
     470:	01ce8023          	sb	t3,0(t4)
     474:	0007cf03          	lbu	t5,0(a5)
     478:	fff70713          	addi	a4,a4,-1
     47c:	00178793          	addi	a5,a5,1
     480:	01ee8023          	sb	t5,0(t4)
     484:	0007cf83          	lbu	t6,0(a5)
     488:	fff70713          	addi	a4,a4,-1
     48c:	00178793          	addi	a5,a5,1
     490:	01fe8023          	sb	t6,0(t4)
     494:	00178793          	addi	a5,a5,1
     498:	fff7c583          	lbu	a1,-1(a5)
     49c:	fff70713          	addi	a4,a4,-1
     4a0:	00be8023          	sb	a1,0(t4)
     4a4:	04070863          	beqz	a4,4f4 <STACK_SIZE+0xf4>
     4a8:	0007c803          	lbu	a6,0(a5)
     4ac:	00878793          	addi	a5,a5,8
     4b0:	ff870713          	addi	a4,a4,-8
     4b4:	010e8023          	sb	a6,0(t4)
     4b8:	ff97c683          	lbu	a3,-7(a5)
     4bc:	00de8023          	sb	a3,0(t4)
     4c0:	ffa7c283          	lbu	t0,-6(a5)
     4c4:	005e8023          	sb	t0,0(t4)
     4c8:	ffb7c303          	lbu	t1,-5(a5)
     4cc:	006e8023          	sb	t1,0(t4)
     4d0:	ffc7c383          	lbu	t2,-4(a5)
     4d4:	007e8023          	sb	t2,0(t4)
     4d8:	ffd7c503          	lbu	a0,-3(a5)
     4dc:	00ae8023          	sb	a0,0(t4)
     4e0:	ffe7c883          	lbu	a7,-2(a5)
     4e4:	011e8023          	sb	a7,0(t4)
     4e8:	fff7ce03          	lbu	t3,-1(a5)
     4ec:	01ce8023          	sb	t3,0(t4)
     4f0:	fa071ce3          	bnez	a4,4a8 <STACK_SIZE+0xa8>
     4f4:	04022023          	sw	zero,64(tp) # 40 <buflen.1776>
     4f8:	00008067          	ret

000004fc <Func_1.constprop.1>:
     4fc:	04300793          	li	a5,67
     500:	00f50663          	beq	a0,a5,50c <Func_1.constprop.1+0x10>
     504:	00000513          	li	a0,0
     508:	00008067          	ret
     50c:	000042b7          	lui	t0,0x4
     510:	c2a28623          	sb	a0,-980(t0) # 3c2c <Ch_1_Glob>
     514:	00100513          	li	a0,1
     518:	00008067          	ret

0000051c <vprintfmt.constprop.4>:
     51c:	eb010113          	addi	sp,sp,-336
     520:	15212023          	sw	s2,320(sp)
     524:	11b12e23          	sw	s11,284(sp)
     528:	00020d93          	mv	s11,tp
     52c:	14112623          	sw	ra,332(sp)
     530:	14812423          	sw	s0,328(sp)
     534:	06100793          	li	a5,97
     538:	040d8093          	addi	ra,s11,64
     53c:	13912223          	sw	s9,292(sp)
     540:	14912223          	sw	s1,324(sp)
     544:	13312e23          	sw	s3,316(sp)
     548:	13412c23          	sw	s4,312(sp)
     54c:	13512a23          	sw	s5,308(sp)
     550:	13612823          	sw	s6,304(sp)
     554:	13712623          	sw	s7,300(sp)
     558:	13812423          	sw	s8,296(sp)
     55c:	13a12023          	sw	s10,288(sp)
     560:	00050c93          	mv	s9,a0
     564:	00b12423          	sw	a1,8(sp)
     568:	00f12623          	sw	a5,12(sp)
     56c:	00112223          	sw	ra,4(sp)
     570:	000cc283          	lbu	t0,0(s9)
     574:	02500713          	li	a4,37
     578:	12e28a63          	beq	t0,a4,6ac <vprintfmt.constprop.4+0x190>
     57c:	18028463          	beqz	t0,704 <vprintfmt.constprop.4+0x1e8>
     580:	04022c03          	lw	s8,64(tp) # 40 <buflen.1776>
     584:	00a00b93          	li	s7,10
     588:	001c8c93          	addi	s9,s9,1
     58c:	001c0713          	addi	a4,s8,1
     590:	018d8533          	add	a0,s11,s8
     594:	04e22023          	sw	a4,64(tp) # 40 <buflen.1776>
     598:	00550023          	sb	t0,0(a0)
     59c:	15728e63          	beq	t0,s7,6f8 <vprintfmt.constprop.4+0x1dc>
     5a0:	04000813          	li	a6,64
     5a4:	fd0716e3          	bne	a4,a6,570 <vprintfmt.constprop.4+0x54>
     5a8:	00777d13          	andi	s10,a4,7
     5ac:	00020793          	mv	a5,tp
     5b0:	f0000f37          	lui	t5,0xf0000
     5b4:	fff70093          	addi	ra,a4,-1
     5b8:	080d0c63          	beqz	s10,650 <vprintfmt.constprop.4+0x134>
     5bc:	00100613          	li	a2,1
     5c0:	06cd0e63          	beq	s10,a2,63c <vprintfmt.constprop.4+0x120>
     5c4:	00200293          	li	t0,2
     5c8:	065d0263          	beq	s10,t0,62c <vprintfmt.constprop.4+0x110>
     5cc:	00300693          	li	a3,3
     5d0:	04dd0663          	beq	s10,a3,61c <vprintfmt.constprop.4+0x100>
     5d4:	00400313          	li	t1,4
     5d8:	026d0a63          	beq	s10,t1,60c <vprintfmt.constprop.4+0xf0>
     5dc:	00500493          	li	s1,5
     5e0:	009d0e63          	beq	s10,s1,5fc <vprintfmt.constprop.4+0xe0>
     5e4:	00600393          	li	t2,6
     5e8:	147d1c63          	bne	s10,t2,740 <vprintfmt.constprop.4+0x224>
     5ec:	0007ce83          	lbu	t4,0(a5)
     5f0:	fff70713          	addi	a4,a4,-1
     5f4:	00178793          	addi	a5,a5,1
     5f8:	01df0023          	sb	t4,0(t5) # f0000000 <__C_STACK_TOP__+0xefff0000>
     5fc:	0007ca03          	lbu	s4,0(a5)
     600:	fff70713          	addi	a4,a4,-1
     604:	00178793          	addi	a5,a5,1
     608:	014f0023          	sb	s4,0(t5)
     60c:	0007c983          	lbu	s3,0(a5)
     610:	fff70713          	addi	a4,a4,-1
     614:	00178793          	addi	a5,a5,1
     618:	013f0023          	sb	s3,0(t5)
     61c:	0007ca83          	lbu	s5,0(a5)
     620:	fff70713          	addi	a4,a4,-1
     624:	00178793          	addi	a5,a5,1
     628:	015f0023          	sb	s5,0(t5)
     62c:	0007c583          	lbu	a1,0(a5)
     630:	fff70713          	addi	a4,a4,-1
     634:	00178793          	addi	a5,a5,1
     638:	00bf0023          	sb	a1,0(t5)
     63c:	00178793          	addi	a5,a5,1
     640:	fff7c883          	lbu	a7,-1(a5)
     644:	fff70713          	addi	a4,a4,-1
     648:	011f0023          	sb	a7,0(t5)
     64c:	04070863          	beqz	a4,69c <vprintfmt.constprop.4+0x180>
     650:	0007cb03          	lbu	s6,0(a5)
     654:	00878793          	addi	a5,a5,8
     658:	ff870713          	addi	a4,a4,-8
     65c:	016f0023          	sb	s6,0(t5)
     660:	ff97cf83          	lbu	t6,-7(a5)
     664:	01ff0023          	sb	t6,0(t5)
     668:	ffa7cc03          	lbu	s8,-6(a5)
     66c:	018f0023          	sb	s8,0(t5)
     670:	ffb7cb83          	lbu	s7,-5(a5)
     674:	017f0023          	sb	s7,0(t5)
     678:	ffc7c503          	lbu	a0,-4(a5)
     67c:	00af0023          	sb	a0,0(t5)
     680:	ffd7c803          	lbu	a6,-3(a5)
     684:	010f0023          	sb	a6,0(t5)
     688:	ffe7cd03          	lbu	s10,-2(a5)
     68c:	01af0023          	sb	s10,0(t5)
     690:	fff7c083          	lbu	ra,-1(a5)
     694:	001f0023          	sb	ra,0(t5)
     698:	fa071ce3          	bnez	a4,650 <vprintfmt.constprop.4+0x134>
     69c:	04022023          	sw	zero,64(tp) # 40 <buflen.1776>
     6a0:	000cc283          	lbu	t0,0(s9)
     6a4:	02500713          	li	a4,37
     6a8:	ece29ae3          	bne	t0,a4,57c <vprintfmt.constprop.4+0x60>
     6ac:	001c8b13          	addi	s6,s9,1
     6b0:	000036b7          	lui	a3,0x3
     6b4:	000b0f93          	mv	t6,s6
     6b8:	02000b93          	li	s7,32
     6bc:	fff00493          	li	s1,-1
     6c0:	fff00c13          	li	s8,-1
     6c4:	00000513          	li	a0,0
     6c8:	05500793          	li	a5,85
     6cc:	cc068593          	addi	a1,a3,-832 # 2cc0 <__umoddi3+0x418>
     6d0:	00900893          	li	a7,9
     6d4:	000fc603          	lbu	a2,0(t6)
     6d8:	001f8c93          	addi	s9,t6,1
     6dc:	fdd60313          	addi	t1,a2,-35
     6e0:	0ff37393          	andi	t2,t1,255
     6e4:	5877ea63          	bltu	a5,t2,c78 <vprintfmt.constprop.4+0x75c>
     6e8:	00239813          	slli	a6,t2,0x2
     6ec:	00b809b3          	add	s3,a6,a1
     6f0:	0009aa03          	lw	s4,0(s3)
     6f4:	000a0067          	jr	s4
     6f8:	eae048e3          	bgtz	a4,5a8 <vprintfmt.constprop.4+0x8c>
     6fc:	04022023          	sw	zero,64(tp) # 40 <buflen.1776>
     700:	fa1ff06f          	j	6a0 <vprintfmt.constprop.4+0x184>
     704:	14c12083          	lw	ra,332(sp)
     708:	14812403          	lw	s0,328(sp)
     70c:	14412483          	lw	s1,324(sp)
     710:	14012903          	lw	s2,320(sp)
     714:	13c12983          	lw	s3,316(sp)
     718:	13812a03          	lw	s4,312(sp)
     71c:	13412a83          	lw	s5,308(sp)
     720:	13012b03          	lw	s6,304(sp)
     724:	12c12b83          	lw	s7,300(sp)
     728:	12812c03          	lw	s8,296(sp)
     72c:	12412c83          	lw	s9,292(sp)
     730:	12012d03          	lw	s10,288(sp)
     734:	11c12d83          	lw	s11,284(sp)
     738:	15010113          	addi	sp,sp,336
     73c:	00008067          	ret
     740:	0007ce03          	lbu	t3,0(a5)
     744:	00008713          	mv	a4,ra
     748:	00178793          	addi	a5,a5,1
     74c:	01cf0023          	sb	t3,0(t5)
     750:	e9dff06f          	j	5ec <vprintfmt.constprop.4+0xd0>
     754:	000c5463          	bgez	s8,75c <vprintfmt.constprop.4+0x240>
     758:	00000c13          	li	s8,0
     75c:	000c8f93          	mv	t6,s9
     760:	f75ff06f          	j	6d4 <vprintfmt.constprop.4+0x1b8>
     764:	06100493          	li	s1,97
     768:	00912623          	sw	s1,12(sp)
     76c:	01000d13          	li	s10,16
     770:	00100093          	li	ra,1
     774:	74a0d663          	ble	a0,ra,ec0 <vprintfmt.constprop.4+0x9a4>
     778:	00812b03          	lw	s6,8(sp)
     77c:	007b0e13          	addi	t3,s6,7
     780:	ff8e7e93          	andi	t4,t3,-8
     784:	000ea983          	lw	s3,0(t4)
     788:	004eab03          	lw	s6,4(t4)
     78c:	008e8513          	addi	a0,t4,8
     790:	00a12423          	sw	a0,8(sp)
     794:	41fd5a13          	srai	s4,s10,0x1f
     798:	000d0613          	mv	a2,s10
     79c:	000a0693          	mv	a3,s4
     7a0:	00098513          	mv	a0,s3
     7a4:	000b0593          	mv	a1,s6
     7a8:	100020ef          	jal	ra,28a8 <__umoddi3>
     7ac:	00a12823          	sw	a0,16(sp)
     7b0:	714b6463          	bltu	s6,s4,eb8 <vprintfmt.constprop.4+0x99c>
     7b4:	716a0063          	beq	s4,s6,eb4 <vprintfmt.constprop.4+0x998>
     7b8:	01410a93          	addi	s5,sp,20
     7bc:	00100493          	li	s1,1
     7c0:	000d0613          	mv	a2,s10
     7c4:	000a0693          	mv	a3,s4
     7c8:	00098513          	mv	a0,s3
     7cc:	000b0593          	mv	a1,s6
     7d0:	4a1010ef          	jal	ra,2470 <__udivdi3>
     7d4:	000d0613          	mv	a2,s10
     7d8:	000a0693          	mv	a3,s4
     7dc:	00050993          	mv	s3,a0
     7e0:	00058b13          	mv	s6,a1
     7e4:	0c4020ef          	jal	ra,28a8 <__umoddi3>
     7e8:	00aaa023          	sw	a0,0(s5)
     7ec:	00148493          	addi	s1,s1,1
     7f0:	004a8a93          	addi	s5,s5,4
     7f4:	014b6663          	bltu	s6,s4,800 <vprintfmt.constprop.4+0x2e4>
     7f8:	fd6a14e3          	bne	s4,s6,7c0 <vprintfmt.constprop.4+0x2a4>
     7fc:	fda9f2e3          	bleu	s10,s3,7c0 <vprintfmt.constprop.4+0x2a4>
     800:	04000313          	li	t1,64
     804:	f00003b7          	lui	t2,0xf0000
     808:	0384d263          	ble	s8,s1,82c <vprintfmt.constprop.4+0x310>
     80c:	04022583          	lw	a1,64(tp) # 40 <buflen.1776>
     810:	00158813          	addi	a6,a1,1
     814:	00bd88b3          	add	a7,s11,a1
     818:	05022023          	sw	a6,64(tp) # 40 <buflen.1776>
     81c:	01788023          	sb	s7,0(a7)
     820:	06680a63          	beq	a6,t1,894 <vprintfmt.constprop.4+0x378>
     824:	fffc0c13          	addi	s8,s8,-1
     828:	ff84c2e3          	blt	s1,s8,80c <vprintfmt.constprop.4+0x2f0>
     82c:	00c12683          	lw	a3,12(sp)
     830:	00249b93          	slli	s7,s1,0x2
     834:	11010c13          	addi	s8,sp,272
     838:	017c0d33          	add	s10,s8,s7
     83c:	efcd0793          	addi	a5,s10,-260
     840:	00c10393          	addi	t2,sp,12
     844:	00900893          	li	a7,9
     848:	ff668f93          	addi	t6,a3,-10
     84c:	00a00813          	li	a6,10
     850:	f00005b7          	lui	a1,0xf0000
     854:	04000313          	li	t1,64
     858:	d0f38ce3          	beq	t2,a5,570 <vprintfmt.constprop.4+0x54>
     85c:	0007a703          	lw	a4,0(a5)
     860:	03000f13          	li	t5,48
     864:	00e8f463          	bleu	a4,a7,86c <vprintfmt.constprop.4+0x350>
     868:	000f8f13          	mv	t5,t6
     86c:	04022603          	lw	a2,64(tp) # 40 <buflen.1776>
     870:	01e700b3          	add	ra,a4,t5
     874:	00160693          	addi	a3,a2,1
     878:	00cd82b3          	add	t0,s11,a2
     87c:	04d22023          	sw	a3,64(tp) # 40 <buflen.1776>
     880:	00128023          	sb	ra,0(t0)
     884:	41008463          	beq	ra,a6,c8c <vprintfmt.constprop.4+0x770>
     888:	40668463          	beq	a3,t1,c90 <vprintfmt.constprop.4+0x774>
     88c:	ffc78793          	addi	a5,a5,-4
     890:	fc9ff06f          	j	858 <vprintfmt.constprop.4+0x33c>
     894:	00412f83          	lw	t6,4(sp)
     898:	000d8793          	mv	a5,s11
     89c:	41bf8d33          	sub	s10,t6,s11
     8a0:	007d7f13          	andi	t5,s10,7
     8a4:	080f0863          	beqz	t5,934 <vprintfmt.constprop.4+0x418>
     8a8:	00100613          	li	a2,1
     8ac:	06cf0a63          	beq	t5,a2,920 <vprintfmt.constprop.4+0x404>
     8b0:	00200093          	li	ra,2
     8b4:	061f0063          	beq	t5,ra,914 <vprintfmt.constprop.4+0x3f8>
     8b8:	00300713          	li	a4,3
     8bc:	04ef0663          	beq	t5,a4,908 <vprintfmt.constprop.4+0x3ec>
     8c0:	00400293          	li	t0,4
     8c4:	025f0c63          	beq	t5,t0,8fc <vprintfmt.constprop.4+0x3e0>
     8c8:	00500693          	li	a3,5
     8cc:	02df0263          	beq	t5,a3,8f0 <vprintfmt.constprop.4+0x3d4>
     8d0:	00600e13          	li	t3,6
     8d4:	01cf0863          	beq	t5,t3,8e4 <vprintfmt.constprop.4+0x3c8>
     8d8:	000dce83          	lbu	t4,0(s11)
     8dc:	001d8793          	addi	a5,s11,1
     8e0:	01d38023          	sb	t4,0(t2) # f0000000 <__C_STACK_TOP__+0xefff0000>
     8e4:	0007c503          	lbu	a0,0(a5)
     8e8:	00178793          	addi	a5,a5,1
     8ec:	00a38023          	sb	a0,0(t2)
     8f0:	0007ca03          	lbu	s4,0(a5)
     8f4:	00178793          	addi	a5,a5,1
     8f8:	01438023          	sb	s4,0(t2)
     8fc:	0007c983          	lbu	s3,0(a5)
     900:	00178793          	addi	a5,a5,1
     904:	01338023          	sb	s3,0(t2)
     908:	0007cb03          	lbu	s6,0(a5)
     90c:	00178793          	addi	a5,a5,1
     910:	01638023          	sb	s6,0(t2)
     914:	0007ca83          	lbu	s5,0(a5)
     918:	00178793          	addi	a5,a5,1
     91c:	01538023          	sb	s5,0(t2)
     920:	00178793          	addi	a5,a5,1
     924:	fff7c583          	lbu	a1,-1(a5)
     928:	00b38023          	sb	a1,0(t2)
     92c:	00412803          	lw	a6,4(sp)
     930:	05078863          	beq	a5,a6,980 <vprintfmt.constprop.4+0x464>
     934:	0007c883          	lbu	a7,0(a5)
     938:	00878793          	addi	a5,a5,8
     93c:	01138023          	sb	a7,0(t2)
     940:	ff97cf83          	lbu	t6,-7(a5)
     944:	01f38023          	sb	t6,0(t2)
     948:	ffa7cd03          	lbu	s10,-6(a5)
     94c:	01a38023          	sb	s10,0(t2)
     950:	ffb7cf03          	lbu	t5,-5(a5)
     954:	01e38023          	sb	t5,0(t2)
     958:	ffc7c603          	lbu	a2,-4(a5)
     95c:	00c38023          	sb	a2,0(t2)
     960:	ffd7c083          	lbu	ra,-3(a5)
     964:	00138023          	sb	ra,0(t2)
     968:	ffe7c703          	lbu	a4,-2(a5)
     96c:	00e38023          	sb	a4,0(t2)
     970:	fff7c283          	lbu	t0,-1(a5)
     974:	00538023          	sb	t0,0(t2)
     978:	00412683          	lw	a3,4(sp)
     97c:	fad79ce3          	bne	a5,a3,934 <vprintfmt.constprop.4+0x418>
     980:	04022023          	sw	zero,64(tp) # 40 <buflen.1776>
     984:	fffc0c13          	addi	s8,s8,-1
     988:	ea1ff06f          	j	828 <vprintfmt.constprop.4+0x30c>
     98c:	000c8f93          	mv	t6,s9
     990:	03000b93          	li	s7,48
     994:	d41ff06f          	j	6d4 <vprintfmt.constprop.4+0x1b8>
     998:	00812983          	lw	s3,8(sp)
     99c:	000c8f93          	mv	t6,s9
     9a0:	0009a483          	lw	s1,0(s3)
     9a4:	00498a93          	addi	s5,s3,4
     9a8:	01512423          	sw	s5,8(sp)
     9ac:	d20c54e3          	bgez	s8,6d4 <vprintfmt.constprop.4+0x1b8>
     9b0:	00048c13          	mv	s8,s1
     9b4:	fff00493          	li	s1,-1
     9b8:	d1dff06f          	j	6d4 <vprintfmt.constprop.4+0x1b8>
     9bc:	001fce83          	lbu	t4,1(t6)
     9c0:	fd060493          	addi	s1,a2,-48
     9c4:	000c8f93          	mv	t6,s9
     9c8:	fd0e8313          	addi	t1,t4,-48
     9cc:	fe68e0e3          	bltu	a7,t1,9ac <vprintfmt.constprop.4+0x490>
     9d0:	00249c93          	slli	s9,s1,0x2
     9d4:	009c84b3          	add	s1,s9,s1
     9d8:	00149393          	slli	t2,s1,0x1
     9dc:	001f8f93          	addi	t6,t6,1
     9e0:	01d38e33          	add	t3,t2,t4
     9e4:	000fce83          	lbu	t4,0(t6)
     9e8:	fd0e0493          	addi	s1,t3,-48
     9ec:	fd0e8a13          	addi	s4,t4,-48
     9f0:	ff48f0e3          	bleu	s4,a7,9d0 <vprintfmt.constprop.4+0x4b4>
     9f4:	fb9ff06f          	j	9ac <vprintfmt.constprop.4+0x490>
     9f8:	00000593          	li	a1,0
     9fc:	02500513          	li	a0,37
     a00:	9c1ff0ef          	jal	ra,3c0 <printf_putch>
     a04:	b6dff06f          	j	570 <vprintfmt.constprop.4+0x54>
     a08:	00812503          	lw	a0,8(sp)
     a0c:	00052b03          	lw	s6,0(a0)
     a10:	00450a13          	addi	s4,a0,4
     a14:	4e0b0c63          	beqz	s6,f0c <vprintfmt.constprop.4+0x9f0>
     a18:	4d805263          	blez	s8,edc <vprintfmt.constprop.4+0x9c0>
     a1c:	02d00593          	li	a1,45
     a20:	50bb9e63          	bne	s7,a1,f3c <vprintfmt.constprop.4+0xa20>
     a24:	000b4e03          	lbu	t3,0(s6)
     a28:	000e0e93          	mv	t4,t3
     a2c:	040e0663          	beqz	t3,a78 <vprintfmt.constprop.4+0x55c>
     a30:	fff00f13          	li	t5,-1
     a34:	00a00f93          	li	t6,10
     a38:	f00000b7          	lui	ra,0xf0000
     a3c:	04000293          	li	t0,64
     a40:	4604d463          	bgez	s1,ea8 <vprintfmt.constprop.4+0x98c>
     a44:	04022783          	lw	a5,64(tp) # 40 <buflen.1776>
     a48:	00178713          	addi	a4,a5,1
     a4c:	00fd86b3          	add	a3,s11,a5
     a50:	04e22023          	sw	a4,64(tp) # 40 <buflen.1776>
     a54:	01c68023          	sb	t3,0(a3)
     a58:	35fe8263          	beq	t4,t6,d9c <vprintfmt.constprop.4+0x880>
     a5c:	34570263          	beq	a4,t0,da0 <vprintfmt.constprop.4+0x884>
     a60:	001b0b13          	addi	s6,s6,1
     a64:	000b4e03          	lbu	t3,0(s6)
     a68:	fffc0c13          	addi	s8,s8,-1
     a6c:	000e0e93          	mv	t4,t3
     a70:	fc0e18e3          	bnez	t3,a40 <vprintfmt.constprop.4+0x524>
     a74:	11805e63          	blez	s8,b90 <vprintfmt.constprop.4+0x674>
     a78:	007c7b13          	andi	s6,s8,7
     a7c:	fffc0493          	addi	s1,s8,-1
     a80:	0a0b0463          	beqz	s6,b28 <vprintfmt.constprop.4+0x60c>
     a84:	00100f13          	li	t5,1
     a88:	09eb0663          	beq	s6,t5,b14 <vprintfmt.constprop.4+0x5f8>
     a8c:	00200f93          	li	t6,2
     a90:	07fb0a63          	beq	s6,t6,b04 <vprintfmt.constprop.4+0x5e8>
     a94:	00300093          	li	ra,3
     a98:	041b0e63          	beq	s6,ra,af4 <vprintfmt.constprop.4+0x5d8>
     a9c:	00400293          	li	t0,4
     aa0:	045b0263          	beq	s6,t0,ae4 <vprintfmt.constprop.4+0x5c8>
     aa4:	00500a93          	li	s5,5
     aa8:	035b0663          	beq	s6,s5,ad4 <vprintfmt.constprop.4+0x5b8>
     aac:	00600b93          	li	s7,6
     ab0:	017b0a63          	beq	s6,s7,ac4 <vprintfmt.constprop.4+0x5a8>
     ab4:	00000593          	li	a1,0
     ab8:	02000513          	li	a0,32
     abc:	905ff0ef          	jal	ra,3c0 <printf_putch>
     ac0:	00048c13          	mv	s8,s1
     ac4:	00000593          	li	a1,0
     ac8:	02000513          	li	a0,32
     acc:	8f5ff0ef          	jal	ra,3c0 <printf_putch>
     ad0:	fffc0c13          	addi	s8,s8,-1
     ad4:	00000593          	li	a1,0
     ad8:	02000513          	li	a0,32
     adc:	8e5ff0ef          	jal	ra,3c0 <printf_putch>
     ae0:	fffc0c13          	addi	s8,s8,-1
     ae4:	00000593          	li	a1,0
     ae8:	02000513          	li	a0,32
     aec:	8d5ff0ef          	jal	ra,3c0 <printf_putch>
     af0:	fffc0c13          	addi	s8,s8,-1
     af4:	00000593          	li	a1,0
     af8:	02000513          	li	a0,32
     afc:	8c5ff0ef          	jal	ra,3c0 <printf_putch>
     b00:	fffc0c13          	addi	s8,s8,-1
     b04:	00000593          	li	a1,0
     b08:	02000513          	li	a0,32
     b0c:	8b5ff0ef          	jal	ra,3c0 <printf_putch>
     b10:	fffc0c13          	addi	s8,s8,-1
     b14:	fffc0c13          	addi	s8,s8,-1
     b18:	00000593          	li	a1,0
     b1c:	02000513          	li	a0,32
     b20:	8a1ff0ef          	jal	ra,3c0 <printf_putch>
     b24:	060c0663          	beqz	s8,b90 <vprintfmt.constprop.4+0x674>
     b28:	00000593          	li	a1,0
     b2c:	02000513          	li	a0,32
     b30:	891ff0ef          	jal	ra,3c0 <printf_putch>
     b34:	00000593          	li	a1,0
     b38:	02000513          	li	a0,32
     b3c:	885ff0ef          	jal	ra,3c0 <printf_putch>
     b40:	00000593          	li	a1,0
     b44:	02000513          	li	a0,32
     b48:	879ff0ef          	jal	ra,3c0 <printf_putch>
     b4c:	00000593          	li	a1,0
     b50:	02000513          	li	a0,32
     b54:	86dff0ef          	jal	ra,3c0 <printf_putch>
     b58:	00000593          	li	a1,0
     b5c:	02000513          	li	a0,32
     b60:	861ff0ef          	jal	ra,3c0 <printf_putch>
     b64:	00000593          	li	a1,0
     b68:	02000513          	li	a0,32
     b6c:	855ff0ef          	jal	ra,3c0 <printf_putch>
     b70:	00000593          	li	a1,0
     b74:	02000513          	li	a0,32
     b78:	849ff0ef          	jal	ra,3c0 <printf_putch>
     b7c:	ff8c0c13          	addi	s8,s8,-8
     b80:	00000593          	li	a1,0
     b84:	02000513          	li	a0,32
     b88:	839ff0ef          	jal	ra,3c0 <printf_putch>
     b8c:	f80c1ee3          	bnez	s8,b28 <vprintfmt.constprop.4+0x60c>
     b90:	01412423          	sw	s4,8(sp)
     b94:	9ddff06f          	j	570 <vprintfmt.constprop.4+0x54>
     b98:	00a00d13          	li	s10,10
     b9c:	bd5ff06f          	j	770 <vprintfmt.constprop.4+0x254>
     ba0:	000c8f93          	mv	t6,s9
     ba4:	02d00b93          	li	s7,45
     ba8:	b2dff06f          	j	6d4 <vprintfmt.constprop.4+0x1b8>
     bac:	04100f93          	li	t6,65
     bb0:	01f12623          	sw	t6,12(sp)
     bb4:	01000d13          	li	s10,16
     bb8:	bb9ff06f          	j	770 <vprintfmt.constprop.4+0x254>
     bbc:	00812f03          	lw	t5,8(sp)
     bc0:	00000593          	li	a1,0
     bc4:	000f2503          	lw	a0,0(t5)
     bc8:	004f0a93          	addi	s5,t5,4
     bcc:	ff4ff0ef          	jal	ra,3c0 <printf_putch>
     bd0:	01512423          	sw	s5,8(sp)
     bd4:	99dff06f          	j	570 <vprintfmt.constprop.4+0x54>
     bd8:	00100693          	li	a3,1
     bdc:	30a6da63          	ble	a0,a3,ef0 <vprintfmt.constprop.4+0x9d4>
     be0:	00812703          	lw	a4,8(sp)
     be4:	00770313          	addi	t1,a4,7
     be8:	ff837393          	andi	t2,t1,-8
     bec:	0003a983          	lw	s3,0(t2)
     bf0:	0043ab03          	lw	s6,4(t2)
     bf4:	00838813          	addi	a6,t2,8
     bf8:	01012423          	sw	a6,8(sp)
     bfc:	020b5063          	bgez	s6,c1c <vprintfmt.constprop.4+0x700>
     c00:	00000593          	li	a1,0
     c04:	02d00513          	li	a0,45
     c08:	fb8ff0ef          	jal	ra,3c0 <printf_putch>
     c0c:	413009b3          	neg	s3,s3
     c10:	013035b3          	snez	a1,s3
     c14:	416008b3          	neg	a7,s6
     c18:	40b88b33          	sub	s6,a7,a1
     c1c:	00a00d13          	li	s10,10
     c20:	b75ff06f          	j	794 <vprintfmt.constprop.4+0x278>
     c24:	00150513          	addi	a0,a0,1
     c28:	000c8f93          	mv	t6,s9
     c2c:	aa9ff06f          	j	6d4 <vprintfmt.constprop.4+0x1b8>
     c30:	00800d13          	li	s10,8
     c34:	b3dff06f          	j	770 <vprintfmt.constprop.4+0x254>
     c38:	00000593          	li	a1,0
     c3c:	03000513          	li	a0,48
     c40:	f80ff0ef          	jal	ra,3c0 <printf_putch>
     c44:	00000593          	li	a1,0
     c48:	07800513          	li	a0,120
     c4c:	f74ff0ef          	jal	ra,3c0 <printf_putch>
     c50:	00812e83          	lw	t4,8(sp)
     c54:	06100e13          	li	t3,97
     c58:	01000d13          	li	s10,16
     c5c:	01c12623          	sw	t3,12(sp)
     c60:	004e8493          	addi	s1,t4,4
     c64:	00812a03          	lw	s4,8(sp)
     c68:	00000b13          	li	s6,0
     c6c:	00912423          	sw	s1,8(sp)
     c70:	000a2983          	lw	s3,0(s4)
     c74:	b21ff06f          	j	794 <vprintfmt.constprop.4+0x278>
     c78:	00000593          	li	a1,0
     c7c:	02500513          	li	a0,37
     c80:	f40ff0ef          	jal	ra,3c0 <printf_putch>
     c84:	000b0c93          	mv	s9,s6
     c88:	8e9ff06f          	j	570 <vprintfmt.constprop.4+0x54>
     c8c:	10d05263          	blez	a3,d90 <vprintfmt.constprop.4+0x874>
     c90:	0076f493          	andi	s1,a3,7
     c94:	00020713          	mv	a4,tp
     c98:	fff68e13          	addi	t3,a3,-1
     c9c:	0a048463          	beqz	s1,d44 <vprintfmt.constprop.4+0x828>
     ca0:	00100e93          	li	t4,1
     ca4:	09d48663          	beq	s1,t4,d30 <vprintfmt.constprop.4+0x814>
     ca8:	00200513          	li	a0,2
     cac:	06a48a63          	beq	s1,a0,d20 <vprintfmt.constprop.4+0x804>
     cb0:	00300a13          	li	s4,3
     cb4:	05448e63          	beq	s1,s4,d10 <vprintfmt.constprop.4+0x7f4>
     cb8:	00400993          	li	s3,4
     cbc:	05348263          	beq	s1,s3,d00 <vprintfmt.constprop.4+0x7e4>
     cc0:	00500b13          	li	s6,5
     cc4:	03648663          	beq	s1,s6,cf0 <vprintfmt.constprop.4+0x7d4>
     cc8:	00600a93          	li	s5,6
     ccc:	01548a63          	beq	s1,s5,ce0 <vprintfmt.constprop.4+0x7c4>
     cd0:	00074b83          	lbu	s7,0(a4)
     cd4:	000e0693          	mv	a3,t3
     cd8:	00170713          	addi	a4,a4,1
     cdc:	01758023          	sb	s7,0(a1) # f0000000 <__C_STACK_TOP__+0xefff0000>
     ce0:	00074c03          	lbu	s8,0(a4)
     ce4:	fff68693          	addi	a3,a3,-1
     ce8:	00170713          	addi	a4,a4,1
     cec:	01858023          	sb	s8,0(a1)
     cf0:	00074d03          	lbu	s10,0(a4)
     cf4:	fff68693          	addi	a3,a3,-1
     cf8:	00170713          	addi	a4,a4,1
     cfc:	01a58023          	sb	s10,0(a1)
     d00:	00074f03          	lbu	t5,0(a4)
     d04:	fff68693          	addi	a3,a3,-1
     d08:	00170713          	addi	a4,a4,1
     d0c:	01e58023          	sb	t5,0(a1)
     d10:	00074603          	lbu	a2,0(a4)
     d14:	fff68693          	addi	a3,a3,-1
     d18:	00170713          	addi	a4,a4,1
     d1c:	00c58023          	sb	a2,0(a1)
     d20:	00074083          	lbu	ra,0(a4)
     d24:	fff68693          	addi	a3,a3,-1
     d28:	00170713          	addi	a4,a4,1
     d2c:	00158023          	sb	ra,0(a1)
     d30:	00170713          	addi	a4,a4,1
     d34:	fff74283          	lbu	t0,-1(a4)
     d38:	fff68693          	addi	a3,a3,-1
     d3c:	00558023          	sb	t0,0(a1)
     d40:	04068863          	beqz	a3,d90 <vprintfmt.constprop.4+0x874>
     d44:	00074483          	lbu	s1,0(a4)
     d48:	00870713          	addi	a4,a4,8
     d4c:	ff868693          	addi	a3,a3,-8
     d50:	00958023          	sb	s1,0(a1)
     d54:	ff974e03          	lbu	t3,-7(a4)
     d58:	01c58023          	sb	t3,0(a1)
     d5c:	ffa74e83          	lbu	t4,-6(a4)
     d60:	01d58023          	sb	t4,0(a1)
     d64:	ffb74503          	lbu	a0,-5(a4)
     d68:	00a58023          	sb	a0,0(a1)
     d6c:	ffc74a03          	lbu	s4,-4(a4)
     d70:	01458023          	sb	s4,0(a1)
     d74:	ffd74983          	lbu	s3,-3(a4)
     d78:	01358023          	sb	s3,0(a1)
     d7c:	ffe74b03          	lbu	s6,-2(a4)
     d80:	01658023          	sb	s6,0(a1)
     d84:	fff74a83          	lbu	s5,-1(a4)
     d88:	01558023          	sb	s5,0(a1)
     d8c:	fa069ce3          	bnez	a3,d44 <vprintfmt.constprop.4+0x828>
     d90:	04022023          	sw	zero,64(tp) # 40 <buflen.1776>
     d94:	ffc78793          	addi	a5,a5,-4
     d98:	ac1ff06f          	j	858 <vprintfmt.constprop.4+0x33c>
     d9c:	10e05263          	blez	a4,ea0 <vprintfmt.constprop.4+0x984>
     da0:	00777613          	andi	a2,a4,7
     da4:	00020793          	mv	a5,tp
     da8:	fff70313          	addi	t1,a4,-1
     dac:	0a060463          	beqz	a2,e54 <vprintfmt.constprop.4+0x938>
     db0:	00100393          	li	t2,1
     db4:	08760663          	beq	a2,t2,e40 <vprintfmt.constprop.4+0x924>
     db8:	00200813          	li	a6,2
     dbc:	07060a63          	beq	a2,a6,e30 <vprintfmt.constprop.4+0x914>
     dc0:	00300993          	li	s3,3
     dc4:	05360e63          	beq	a2,s3,e20 <vprintfmt.constprop.4+0x904>
     dc8:	00400d13          	li	s10,4
     dcc:	05a60263          	beq	a2,s10,e10 <vprintfmt.constprop.4+0x8f4>
     dd0:	00500513          	li	a0,5
     dd4:	02a60663          	beq	a2,a0,e00 <vprintfmt.constprop.4+0x8e4>
     dd8:	00600593          	li	a1,6
     ddc:	00b60a63          	beq	a2,a1,df0 <vprintfmt.constprop.4+0x8d4>
     de0:	0007c883          	lbu	a7,0(a5)
     de4:	00030713          	mv	a4,t1
     de8:	00178793          	addi	a5,a5,1
     dec:	01108023          	sb	a7,0(ra) # f0000000 <__C_STACK_TOP__+0xefff0000>
     df0:	0007ca83          	lbu	s5,0(a5)
     df4:	fff70713          	addi	a4,a4,-1
     df8:	00178793          	addi	a5,a5,1
     dfc:	01508023          	sb	s5,0(ra)
     e00:	0007cb83          	lbu	s7,0(a5)
     e04:	fff70713          	addi	a4,a4,-1
     e08:	00178793          	addi	a5,a5,1
     e0c:	01708023          	sb	s7,0(ra)
     e10:	0007ce03          	lbu	t3,0(a5)
     e14:	fff70713          	addi	a4,a4,-1
     e18:	00178793          	addi	a5,a5,1
     e1c:	01c08023          	sb	t3,0(ra)
     e20:	0007ce83          	lbu	t4,0(a5)
     e24:	fff70713          	addi	a4,a4,-1
     e28:	00178793          	addi	a5,a5,1
     e2c:	01d08023          	sb	t4,0(ra)
     e30:	0007c683          	lbu	a3,0(a5)
     e34:	fff70713          	addi	a4,a4,-1
     e38:	00178793          	addi	a5,a5,1
     e3c:	00d08023          	sb	a3,0(ra)
     e40:	00178793          	addi	a5,a5,1
     e44:	fff7c603          	lbu	a2,-1(a5)
     e48:	fff70713          	addi	a4,a4,-1
     e4c:	00c08023          	sb	a2,0(ra)
     e50:	04070863          	beqz	a4,ea0 <vprintfmt.constprop.4+0x984>
     e54:	0007c303          	lbu	t1,0(a5)
     e58:	00878793          	addi	a5,a5,8
     e5c:	ff870713          	addi	a4,a4,-8
     e60:	00608023          	sb	t1,0(ra)
     e64:	ff97c383          	lbu	t2,-7(a5)
     e68:	00708023          	sb	t2,0(ra)
     e6c:	ffa7c803          	lbu	a6,-6(a5)
     e70:	01008023          	sb	a6,0(ra)
     e74:	ffb7c983          	lbu	s3,-5(a5)
     e78:	01308023          	sb	s3,0(ra)
     e7c:	ffc7cd03          	lbu	s10,-4(a5)
     e80:	01a08023          	sb	s10,0(ra)
     e84:	ffd7c503          	lbu	a0,-3(a5)
     e88:	00a08023          	sb	a0,0(ra)
     e8c:	ffe7c583          	lbu	a1,-2(a5)
     e90:	00b08023          	sb	a1,0(ra)
     e94:	fff7c883          	lbu	a7,-1(a5)
     e98:	01108023          	sb	a7,0(ra)
     e9c:	fa071ce3          	bnez	a4,e54 <vprintfmt.constprop.4+0x938>
     ea0:	04022023          	sw	zero,64(tp) # 40 <buflen.1776>
     ea4:	bbdff06f          	j	a60 <vprintfmt.constprop.4+0x544>
     ea8:	fff48493          	addi	s1,s1,-1
     eac:	b9e49ce3          	bne	s1,t5,a44 <vprintfmt.constprop.4+0x528>
     eb0:	bc5ff06f          	j	a74 <vprintfmt.constprop.4+0x558>
     eb4:	91a9f2e3          	bleu	s10,s3,7b8 <vprintfmt.constprop.4+0x29c>
     eb8:	00100493          	li	s1,1
     ebc:	945ff06f          	j	800 <vprintfmt.constprop.4+0x2e4>
     ec0:	00812283          	lw	t0,8(sp)
     ec4:	00428493          	addi	s1,t0,4
     ec8:	d9dff06f          	j	c64 <vprintfmt.constprop.4+0x748>
     ecc:	00098b93          	mv	s7,s3
     ed0:	0009d463          	bgez	s3,ed8 <vprintfmt.constprop.4+0x9bc>
     ed4:	00000b93          	li	s7,0
     ed8:	41798c33          	sub	s8,s3,s7
     edc:	000b4e03          	lbu	t3,0(s6)
     ee0:	000e0e93          	mv	t4,t3
     ee4:	b40e16e3          	bnez	t3,a30 <vprintfmt.constprop.4+0x514>
     ee8:	01412423          	sw	s4,8(sp)
     eec:	e84ff06f          	j	570 <vprintfmt.constprop.4+0x54>
     ef0:	00812603          	lw	a2,8(sp)
     ef4:	00460793          	addi	a5,a2,4
     ef8:	02050a63          	beqz	a0,f2c <vprintfmt.constprop.4+0xa10>
     efc:	00062983          	lw	s3,0(a2)
     f00:	00f12423          	sw	a5,8(sp)
     f04:	41f9db13          	srai	s6,s3,0x1f
     f08:	cf5ff06f          	j	bfc <vprintfmt.constprop.4+0x6e0>
     f0c:	01805663          	blez	s8,f18 <vprintfmt.constprop.4+0x9fc>
     f10:	02d00893          	li	a7,45
     f14:	031b9063          	bne	s7,a7,f34 <vprintfmt.constprop.4+0xa18>
     f18:	00003b37          	lui	s6,0x3
     f1c:	01cb0b13          	addi	s6,s6,28 # 301c <__clz_tab+0x100>
     f20:	02800e13          	li	t3,40
     f24:	02800e93          	li	t4,40
     f28:	b09ff06f          	j	a30 <vprintfmt.constprop.4+0x514>
     f2c:	00812603          	lw	a2,8(sp)
     f30:	fcdff06f          	j	efc <vprintfmt.constprop.4+0x9e0>
     f34:	00003ab7          	lui	s5,0x3
     f38:	01ca8b13          	addi	s6,s5,28 # 301c <__clz_tab+0x100>
     f3c:	00048593          	mv	a1,s1
     f40:	000b0513          	mv	a0,s6
     f44:	369000ef          	jal	ra,1aac <strnlen>
     f48:	40ac09b3          	sub	s3,s8,a0
     f4c:	00098d13          	mv	s10,s3
     f50:	f7a05ee3          	blez	s10,ecc <vprintfmt.constprop.4+0x9b0>
     f54:	00000593          	li	a1,0
     f58:	000b8513          	mv	a0,s7
     f5c:	c64ff0ef          	jal	ra,3c0 <printf_putch>
     f60:	fffd0d13          	addi	s10,s10,-1
     f64:	fedff06f          	j	f50 <vprintfmt.constprop.4+0xa34>

00000f68 <sc_printf>:
     f68:	fc010113          	addi	sp,sp,-64
     f6c:	02410313          	addi	t1,sp,36
     f70:	02b12223          	sw	a1,36(sp)
     f74:	00030593          	mv	a1,t1
     f78:	00112e23          	sw	ra,28(sp)
     f7c:	02c12423          	sw	a2,40(sp)
     f80:	02d12623          	sw	a3,44(sp)
     f84:	02e12823          	sw	a4,48(sp)
     f88:	02f12a23          	sw	a5,52(sp)
     f8c:	03012c23          	sw	a6,56(sp)
     f90:	03112e23          	sw	a7,60(sp)
     f94:	00612623          	sw	t1,12(sp)
     f98:	d84ff0ef          	jal	ra,51c <vprintfmt.constprop.4>
     f9c:	01c12083          	lw	ra,28(sp)
     fa0:	00000513          	li	a0,0
     fa4:	04010113          	addi	sp,sp,64
     fa8:	00008067          	ret

00000fac <putchar>:
     fac:	04022803          	lw	a6,64(tp) # 40 <buflen.1776>
     fb0:	00020293          	mv	t0,tp
     fb4:	00180713          	addi	a4,a6,1
     fb8:	01028333          	add	t1,t0,a6
     fbc:	04e22023          	sw	a4,64(tp) # 40 <buflen.1776>
     fc0:	00a30023          	sb	a0,0(t1)
     fc4:	00a00393          	li	t2,10
     fc8:	00750a63          	beq	a0,t2,fdc <putchar+0x30>
     fcc:	04000513          	li	a0,64
     fd0:	00a70863          	beq	a4,a0,fe0 <putchar+0x34>
     fd4:	00000513          	li	a0,0
     fd8:	00008067          	ret
     fdc:	10e05463          	blez	a4,10e4 <putchar+0x138>
     fe0:	00777e13          	andi	t3,a4,7
     fe4:	00020793          	mv	a5,tp
     fe8:	f0000eb7          	lui	t4,0xf0000
     fec:	fff70f13          	addi	t5,a4,-1
     ff0:	0a0e0463          	beqz	t3,1098 <putchar+0xec>
     ff4:	00100f93          	li	t6,1
     ff8:	09fe0663          	beq	t3,t6,1084 <putchar+0xd8>
     ffc:	00200593          	li	a1,2
    1000:	06be0a63          	beq	t3,a1,1074 <putchar+0xc8>
    1004:	00300813          	li	a6,3
    1008:	050e0e63          	beq	t3,a6,1064 <putchar+0xb8>
    100c:	00400693          	li	a3,4
    1010:	04de0263          	beq	t3,a3,1054 <putchar+0xa8>
    1014:	00500293          	li	t0,5
    1018:	025e0663          	beq	t3,t0,1044 <putchar+0x98>
    101c:	00600313          	li	t1,6
    1020:	006e0a63          	beq	t3,t1,1034 <putchar+0x88>
    1024:	0007c383          	lbu	t2,0(a5)
    1028:	000f0713          	mv	a4,t5
    102c:	00178793          	addi	a5,a5,1
    1030:	007e8023          	sb	t2,0(t4) # f0000000 <__C_STACK_TOP__+0xefff0000>
    1034:	0007c503          	lbu	a0,0(a5)
    1038:	fff70713          	addi	a4,a4,-1
    103c:	00178793          	addi	a5,a5,1
    1040:	00ae8023          	sb	a0,0(t4)
    1044:	0007c883          	lbu	a7,0(a5)
    1048:	fff70713          	addi	a4,a4,-1
    104c:	00178793          	addi	a5,a5,1
    1050:	011e8023          	sb	a7,0(t4)
    1054:	0007ce03          	lbu	t3,0(a5)
    1058:	fff70713          	addi	a4,a4,-1
    105c:	00178793          	addi	a5,a5,1
    1060:	01ce8023          	sb	t3,0(t4)
    1064:	0007cf03          	lbu	t5,0(a5)
    1068:	fff70713          	addi	a4,a4,-1
    106c:	00178793          	addi	a5,a5,1
    1070:	01ee8023          	sb	t5,0(t4)
    1074:	0007cf83          	lbu	t6,0(a5)
    1078:	fff70713          	addi	a4,a4,-1
    107c:	00178793          	addi	a5,a5,1
    1080:	01fe8023          	sb	t6,0(t4)
    1084:	00178793          	addi	a5,a5,1
    1088:	fff7c583          	lbu	a1,-1(a5)
    108c:	fff70713          	addi	a4,a4,-1
    1090:	00be8023          	sb	a1,0(t4)
    1094:	04070863          	beqz	a4,10e4 <putchar+0x138>
    1098:	0007c803          	lbu	a6,0(a5)
    109c:	00878793          	addi	a5,a5,8
    10a0:	ff870713          	addi	a4,a4,-8
    10a4:	010e8023          	sb	a6,0(t4)
    10a8:	ff97c683          	lbu	a3,-7(a5)
    10ac:	00de8023          	sb	a3,0(t4)
    10b0:	ffa7c283          	lbu	t0,-6(a5)
    10b4:	005e8023          	sb	t0,0(t4)
    10b8:	ffb7c303          	lbu	t1,-5(a5)
    10bc:	006e8023          	sb	t1,0(t4)
    10c0:	ffc7c383          	lbu	t2,-4(a5)
    10c4:	007e8023          	sb	t2,0(t4)
    10c8:	ffd7c503          	lbu	a0,-3(a5)
    10cc:	00ae8023          	sb	a0,0(t4)
    10d0:	ffe7c883          	lbu	a7,-2(a5)
    10d4:	011e8023          	sb	a7,0(t4)
    10d8:	fff7ce03          	lbu	t3,-1(a5)
    10dc:	01ce8023          	sb	t3,0(t4)
    10e0:	fa071ce3          	bnez	a4,1098 <putchar+0xec>
    10e4:	04022023          	sw	zero,64(tp) # 40 <buflen.1776>
    10e8:	00000513          	li	a0,0
    10ec:	00008067          	ret
    10f0:	0000                	unimp
	...

000010f4 <main>:
    10f4:	00003337          	lui	t1,0x3
    10f8:	f4010113          	addi	sp,sp,-192
    10fc:	02430693          	addi	a3,t1,36 # 3024 <__clz_tab+0x108>
    1100:	0a112e23          	sw	ra,188(sp)
    1104:	0b312623          	sw	s3,172(sp)
    1108:	0b412423          	sw	s4,168(sp)
    110c:	0046a983          	lw	s3,4(a3)
    1110:	02432a03          	lw	s4,36(t1)
    1114:	000040b7          	lui	ra,0x4
    1118:	0a812c23          	sw	s0,184(sp)
    111c:	0b212823          	sw	s2,176(sp)
    1120:	09812c23          	sw	s8,152(sp)
    1124:	00c6a403          	lw	s0,12(a3)
    1128:	c3408c13          	addi	s8,ra,-972 # 3c34 <glob1.3071>
    112c:	0086a903          	lw	s2,8(a3)
    1130:	0a912a23          	sw	s1,180(sp)
    1134:	0b512223          	sw	s5,164(sp)
    1138:	0b612023          	sw	s6,160(sp)
    113c:	09712e23          	sw	s7,156(sp)
    1140:	09912a23          	sw	s9,148(sp)
    1144:	09a12823          	sw	s10,144(sp)
    1148:	09b12623          	sw	s11,140(sp)
    114c:	00003837          	lui	a6,0x3
    1150:	000044b7          	lui	s1,0x4
    1154:	030c0a93          	addi	s5,s8,48
    1158:	00004b37          	lui	s6,0x4
    115c:	00200b93          	li	s7,2
    1160:	02800c93          	li	s9,40
    1164:	5a080713          	addi	a4,a6,1440 # 35a0 <__clz_tab+0x684>
    1168:	0146a283          	lw	t0,20(a3)
    116c:	054c2023          	sw	s4,64(s8)
    1170:	053c2223          	sw	s3,68(s8)
    1174:	c38b2423          	sw	s8,-984(s6) # 3c28 <Next_Ptr_Glob>
    1178:	c354a223          	sw	s5,-988(s1) # 3c24 <Ptr_Glob>
    117c:	038c2823          	sw	s8,48(s8)
    1180:	020c2a23          	sw	zero,52(s8)
    1184:	037c2c23          	sw	s7,56(s8)
    1188:	039c2e23          	sw	s9,60(s8)
    118c:	0106a383          	lw	t2,16(a3)
    1190:	0186af83          	lw	t6,24(a3)
    1194:	01c6df03          	lhu	t5,28(a3)
    1198:	01e6ce83          	lbu	t4,30(a3)
    119c:	5a082e03          	lw	t3,1440(a6)
    11a0:	00472883          	lw	a7,4(a4)
    11a4:	052c2423          	sw	s2,72(s8)
    11a8:	00872803          	lw	a6,8(a4)
    11ac:	00c72a03          	lw	s4,12(a4)
    11b0:	01072983          	lw	s3,16(a4)
    11b4:	01472903          	lw	s2,20(a4)
    11b8:	01c75303          	lhu	t1,28(a4)
    11bc:	048c2623          	sw	s0,76(s8)
    11c0:	01872403          	lw	s0,24(a4)
    11c4:	01e74703          	lbu	a4,30(a4)
    11c8:	00004d37          	lui	s10,0x4
    11cc:	045c2a23          	sw	t0,84(s8)
    11d0:	d5cd0d13          	addi	s10,s10,-676 # 3d5c <Arr_2_Glob>
    11d4:	00a00693          	li	a3,10
    11d8:	1f400293          	li	t0,500
    11dc:	047c2823          	sw	t2,80(s8)
    11e0:	05fc2c23          	sw	t6,88(s8)
    11e4:	05ec1e23          	sh	t5,92(s8)
    11e8:	05dc0f23          	sb	t4,94(s8)
    11ec:	07c12023          	sw	t3,96(sp)
    11f0:	07112223          	sw	a7,100(sp)
    11f4:	07012423          	sw	a6,104(sp)
    11f8:	07412623          	sw	s4,108(sp)
    11fc:	07312823          	sw	s3,112(sp)
    1200:	07212a23          	sw	s2,116(sp)
    1204:	06812c23          	sw	s0,120(sp)
    1208:	06611e23          	sh	t1,124(sp)
    120c:	06e10f23          	sb	a4,126(sp)
    1210:	64dd2e23          	sw	a3,1628(s10)
    1214:	00100393          	li	t2,1
    1218:	00512823          	sw	t0,16(sp)
    121c:	02a3d063          	ble	a0,t2,123c <main+0x148>
    1220:	0045a503          	lw	a0,4(a1)
    1224:	00f12a23          	sw	a5,20(sp)
    1228:	00c12623          	sw	a2,12(sp)
    122c:	069000ef          	jal	ra,1a94 <atoi>
    1230:	01412783          	lw	a5,20(sp)
    1234:	00c12603          	lw	a2,12(sp)
    1238:	00a12823          	sw	a0,16(sp)
    123c:	00003ab7          	lui	s5,0x3
    1240:	224a8513          	addi	a0,s5,548 # 3224 <__clz_tab+0x308>
    1244:	00f12a23          	sw	a5,20(sp)
    1248:	00c12623          	sw	a2,12(sp)
    124c:	d1dff0ef          	jal	ra,f68 <sc_printf>
    1250:	00003537          	lui	a0,0x3
    1254:	04450513          	addi	a0,a0,68 # 3044 <__clz_tab+0x128>
    1258:	d11ff0ef          	jal	ra,f68 <sc_printf>
    125c:	224a8513          	addi	a0,s5,548
    1260:	d09ff0ef          	jal	ra,f68 <sc_printf>
    1264:	000035b7          	lui	a1,0x3
    1268:	07458513          	addi	a0,a1,116 # 3074 <__clz_tab+0x158>
    126c:	cfdff0ef          	jal	ra,f68 <sc_printf>
    1270:	224a8513          	addi	a0,s5,548
    1274:	cf5ff0ef          	jal	ra,f68 <sc_printf>
    1278:	01012b03          	lw	s6,16(sp)
    127c:	00003637          	lui	a2,0x3
    1280:	0a460513          	addi	a0,a2,164 # 30a4 <__clz_tab+0x188>
    1284:	000b0593          	mv	a1,s6
    1288:	ce1ff0ef          	jal	ra,f68 <sc_printf>
    128c:	c0002ff3          	rdcycle	t6
    1290:	00004eb7          	lui	t4,0x4
    1294:	000047b7          	lui	a5,0x4
    1298:	00100f13          	li	t5,1
    129c:	c1eeae23          	sw	t5,-996(t4) # 3c1c <Run_Index>
    12a0:	c3f7a023          	sw	t6,-992(a5) # 3c20 <Begin_Time>
    12a4:	00c12803          	lw	a6,12(sp)
    12a8:	01412e83          	lw	t4,20(sp)
    12ac:	3a0b0e63          	beqz	s6,1668 <main+0x574>
    12b0:	00003db7          	lui	s11,0x3
    12b4:	5c0d8c93          	addi	s9,s11,1472 # 35c0 <__clz_tab+0x6a4>
    12b8:	000030b7          	lui	ra,0x3
    12bc:	5e00a883          	lw	a7,1504(ra) # 35e0 <__clz_tab+0x6c4>
    12c0:	5c0dab83          	lw	s7,1472(s11)
    12c4:	008caa03          	lw	s4,8(s9)
    12c8:	00cca983          	lw	s3,12(s9)
    12cc:	010ca903          	lw	s2,16(s9)
    12d0:	004ca803          	lw	a6,4(s9)
    12d4:	014ca403          	lw	s0,20(s9)
    12d8:	018ca303          	lw	t1,24(s9)
    12dc:	01ccd703          	lhu	a4,28(s9)
    12e0:	000046b7          	lui	a3,0x4
    12e4:	000053b7          	lui	t2,0x5
    12e8:	01712c23          	sw	s7,24(sp)
    12ec:	03412023          	sw	s4,32(sp)
    12f0:	03312223          	sw	s3,36(sp)
    12f4:	03212423          	sw	s2,40(sp)
    12f8:	03112c23          	sw	a7,56(sp)
    12fc:	01012e23          	sw	a6,28(sp)
    1300:	02812623          	sw	s0,44(sp)
    1304:	02612823          	sw	t1,48(sp)
    1308:	02e11b23          	sh	a4,54(sp)
    130c:	00004bb7          	lui	s7,0x4
    1310:	00d12a23          	sw	a3,20(sp)
    1314:	04010a13          	addi	s4,sp,64
    1318:	06010a93          	addi	s5,sp,96
    131c:	00004b37          	lui	s6,0x4
    1320:	d5c38993          	addi	s3,t2,-676 # 4d5c <_gp+0x99c>
    1324:	00004937          	lui	s2,0x4
    1328:	03112e23          	sw	a7,60(sp)
    132c:	0e40006f          	j	1410 <main+0x31c>
    1330:	0003a083          	lw	ra,0(t2)
    1334:	00004db7          	lui	s11,0x4
    1338:	c1cda403          	lw	s0,-996(s11) # 3c1c <Run_Index>
    133c:	0000af83          	lw	t6,0(ra)
    1340:	01c0a503          	lw	a0,28(ra)
    1344:	0040af03          	lw	t5,4(ra)
    1348:	0080ae83          	lw	t4,8(ra)
    134c:	00c0ae03          	lw	t3,12(ra)
    1350:	0100a303          	lw	t1,16(ra)
    1354:	0140a883          	lw	a7,20(ra)
    1358:	0180a803          	lw	a6,24(ra)
    135c:	0200a583          	lw	a1,32(ra)
    1360:	0240a603          	lw	a2,36(ra)
    1364:	0280a283          	lw	t0,40(ra)
    1368:	02c0a703          	lw	a4,44(ra)
    136c:	01f3a023          	sw	t6,0(t2)
    1370:	00a3ae23          	sw	a0,28(t2)
    1374:	01e3a223          	sw	t5,4(t2)
    1378:	01d3a423          	sw	t4,8(t2)
    137c:	01c3a623          	sw	t3,12(t2)
    1380:	0063a823          	sw	t1,16(t2)
    1384:	0113aa23          	sw	a7,20(t2)
    1388:	0103ac23          	sw	a6,24(t2)
    138c:	02b3a023          	sw	a1,32(t2)
    1390:	02c3a223          	sw	a2,36(t2)
    1394:	0253a423          	sw	t0,40(t2)
    1398:	02e3a623          	sw	a4,44(t2)
    139c:	04100513          	li	a0,65
    13a0:	95cff0ef          	jal	ra,4fc <Func_1.constprop.1>
    13a4:	00100d93          	li	s11,1
    13a8:	00300f93          	li	t6,3
    13ac:	1fb50463          	beq	a0,s11,1594 <main+0x4a0>
    13b0:	04200513          	li	a0,66
    13b4:	01f12623          	sw	t6,12(sp)
    13b8:	944ff0ef          	jal	ra,4fc <Func_1.constprop.1>
    13bc:	00c12603          	lw	a2,12(sp)
    13c0:	25b50263          	beq	a0,s11,1604 <main+0x510>
    13c4:	00161293          	slli	t0,a2,0x1
    13c8:	00c28733          	add	a4,t0,a2
    13cc:	00700693          	li	a3,7
    13d0:	02d74833          	div	a6,a4,a3
    13d4:	ff970793          	addi	a5,a4,-7
    13d8:	c2cbcf83          	lbu	t6,-980(s7) # 3c2c <Ch_1_Glob>
    13dc:	00379093          	slli	ra,a5,0x3
    13e0:	40f08f33          	sub	t5,ra,a5
    13e4:	04100393          	li	t2,65
    13e8:	410f0eb3          	sub	t4,t5,a6
    13ec:	007f9863          	bne	t6,t2,13fc <main+0x308>
    13f0:	c1092e03          	lw	t3,-1008(s2) # 3c10 <Int_Glob>
    13f4:	00980893          	addi	a7,a6,9
    13f8:	41c88833          	sub	a6,a7,t3
    13fc:	01012583          	lw	a1,16(sp)
    1400:	00140413          	addi	s0,s0,1
    1404:	00004537          	lui	a0,0x4
    1408:	c0852e23          	sw	s0,-996(a0) # 3c1c <Run_Index>
    140c:	2685ec63          	bltu	a1,s0,1684 <main+0x590>
    1410:	01ecc283          	lbu	t0,30(s9)
    1414:	01412603          	lw	a2,20(sp)
    1418:	01812783          	lw	a5,24(sp)
    141c:	01c12f03          	lw	t5,28(sp)
    1420:	02012e83          	lw	t4,32(sp)
    1424:	02412e03          	lw	t3,36(sp)
    1428:	02812d83          	lw	s11,40(sp)
    142c:	02c12083          	lw	ra,44(sp)
    1430:	03012883          	lw	a7,48(sp)
    1434:	03615803          	lhu	a6,54(sp)
    1438:	06214503          	lbu	a0,98(sp)
    143c:	04100593          	li	a1,65
    1440:	04200f93          	li	t6,66
    1444:	c2bb8623          	sb	a1,-980(s7)
    1448:	c1f60a23          	sb	t6,-1004(a2)
    144c:	04f12023          	sw	a5,64(sp)
    1450:	05e12223          	sw	t5,68(sp)
    1454:	05d12423          	sw	t4,72(sp)
    1458:	05c12623          	sw	t3,76(sp)
    145c:	05b12823          	sw	s11,80(sp)
    1460:	04112a23          	sw	ra,84(sp)
    1464:	05112c23          	sw	a7,88(sp)
    1468:	05011e23          	sh	a6,92(sp)
    146c:	04510f23          	sb	t0,94(sp)
    1470:	05900413          	li	s0,89
    1474:	1e850863          	beq	a0,s0,1664 <main+0x570>
    1478:	000a0593          	mv	a1,s4
    147c:	000a8513          	mv	a0,s5
    1480:	1c9000ef          	jal	ra,1e48 <strcmp>
    1484:	65cd2303          	lw	t1,1628(s10)
    1488:	c244a383          	lw	t2,-988(s1)
    148c:	00700713          	li	a4,7
    1490:	00800293          	li	t0,8
    1494:	00130693          	addi	a3,t1,1
    1498:	0e5c2c23          	sw	t0,248(s8)
    149c:	665d2023          	sw	t0,1632(s10)
    14a0:	665d2223          	sw	t0,1636(s10)
    14a4:	64dd2e23          	sw	a3,1628(s10)
    14a8:	60e9a023          	sw	a4,1536(s3)
    14ac:	08ec2223          	sw	a4,132(s8)
    14b0:	08ec2023          	sw	a4,128(s8)
    14b4:	0003ad83          	lw	s11,0(t2)
    14b8:	0043a783          	lw	a5,4(t2)
    14bc:	0083af83          	lw	t6,8(t2)
    14c0:	0103af03          	lw	t5,16(t2)
    14c4:	0143ae83          	lw	t4,20(t2)
    14c8:	0183ae03          	lw	t3,24(t2)
    14cc:	01c3a403          	lw	s0,28(t2)
    14d0:	0203a883          	lw	a7,32(t2)
    14d4:	0243a803          	lw	a6,36(t2)
    14d8:	0283a603          	lw	a2,40(t2)
    14dc:	00500313          	li	t1,5
    14e0:	00152513          	slti	a0,a0,1
    14e4:	02c3a583          	lw	a1,44(t2)
    14e8:	c0ab2c23          	sw	a0,-1000(s6) # 3c18 <Bool_Glob>
    14ec:	00fda223          	sw	a5,4(s11)
    14f0:	c0692823          	sw	t1,-1008(s2)
    14f4:	01bda023          	sw	s11,0(s11)
    14f8:	01fda423          	sw	t6,8(s11)
    14fc:	01eda823          	sw	t5,16(s11)
    1500:	01ddaa23          	sw	t4,20(s11)
    1504:	01cdac23          	sw	t3,24(s11)
    1508:	008dae23          	sw	s0,28(s11)
    150c:	031da023          	sw	a7,32(s11)
    1510:	030da223          	sw	a6,36(s11)
    1514:	02cda423          	sw	a2,40(s11)
    1518:	0003a703          	lw	a4,0(t2)
    151c:	01100693          	li	a3,17
    1520:	02bda623          	sw	a1,44(s11)
    1524:	00eda023          	sw	a4,0(s11)
    1528:	0003a283          	lw	t0,0(t2)
    152c:	006da623          	sw	t1,12(s11)
    1530:	005da023          	sw	t0,0(s11)
    1534:	00d3a623          	sw	a3,12(t2)
    1538:	004da783          	lw	a5,4(s11)
    153c:	de079ae3          	bnez	a5,1330 <main+0x23c>
    1540:	0083a683          	lw	a3,8(t2)
    1544:	00600793          	li	a5,6
    1548:	00fda623          	sw	a5,12(s11)
    154c:	00200093          	li	ra,2
    1550:	50168063          	beq	a3,ra,1a50 <main+0x95c>
    1554:	50068463          	beqz	a3,1a5c <main+0x968>
    1558:	00400413          	li	s0,4
    155c:	50868463          	beq	a3,s0,1a64 <main+0x970>
    1560:	00300f93          	li	t6,3
    1564:	01fda423          	sw	t6,8(s11)
    1568:	0003a383          	lw	t2,0(t2)
    156c:	01200e93          	li	t4,18
    1570:	01dda623          	sw	t4,12(s11)
    1574:	007da023          	sw	t2,0(s11)
    1578:	04100513          	li	a0,65
    157c:	00004db7          	lui	s11,0x4
    1580:	c1cda403          	lw	s0,-996(s11) # 3c1c <Run_Index>
    1584:	f79fe0ef          	jal	ra,4fc <Func_1.constprop.1>
    1588:	00100d93          	li	s11,1
    158c:	00300f93          	li	t6,3
    1590:	e3b510e3          	bne	a0,s11,13b0 <main+0x2bc>
    1594:	00003e37          	lui	t3,0x3
    1598:	5e0e0313          	addi	t1,t3,1504 # 35e0 <__clz_tab+0x6c4>
    159c:	00c32503          	lw	a0,12(t1)
    15a0:	01432603          	lw	a2,20(t1)
    15a4:	00432883          	lw	a7,4(t1)
    15a8:	00832803          	lw	a6,8(t1)
    15ac:	01032583          	lw	a1,16(t1)
    15b0:	01832283          	lw	t0,24(t1)
    15b4:	01c35703          	lhu	a4,28(t1)
    15b8:	01e34683          	lbu	a3,30(t1)
    15bc:	03812783          	lw	a5,56(sp)
    15c0:	04a12623          	sw	a0,76(sp)
    15c4:	00040f93          	mv	t6,s0
    15c8:	04200513          	li	a0,66
    15cc:	04c12a23          	sw	a2,84(sp)
    15d0:	04f12023          	sw	a5,64(sp)
    15d4:	05112223          	sw	a7,68(sp)
    15d8:	05012423          	sw	a6,72(sp)
    15dc:	04b12823          	sw	a1,80(sp)
    15e0:	04512c23          	sw	t0,88(sp)
    15e4:	04e11e23          	sh	a4,92(sp)
    15e8:	04d10f23          	sb	a3,94(sp)
    15ec:	c0892823          	sw	s0,-1008(s2)
    15f0:	01f12623          	sw	t6,12(sp)
    15f4:	00000d93          	li	s11,0
    15f8:	f05fe0ef          	jal	ra,4fc <Func_1.constprop.1>
    15fc:	00c12603          	lw	a2,12(sp)
    1600:	ddb512e3          	bne	a0,s11,13c4 <main+0x2d0>
    1604:	000030b7          	lui	ra,0x3
    1608:	5e008f13          	addi	t5,ra,1504 # 35e0 <__clz_tab+0x6c4>
    160c:	00cf2d83          	lw	s11,12(t5)
    1610:	004f2383          	lw	t2,4(t5)
    1614:	008f2e83          	lw	t4,8(t5)
    1618:	010f2e03          	lw	t3,16(t5)
    161c:	014f2883          	lw	a7,20(t5)
    1620:	018f2803          	lw	a6,24(t5)
    1624:	01cf5503          	lhu	a0,28(t5)
    1628:	01ef4583          	lbu	a1,30(t5)
    162c:	03c12303          	lw	t1,60(sp)
    1630:	05b12623          	sw	s11,76(sp)
    1634:	04712223          	sw	t2,68(sp)
    1638:	04612023          	sw	t1,64(sp)
    163c:	05d12423          	sw	t4,72(sp)
    1640:	05c12823          	sw	t3,80(sp)
    1644:	05112a23          	sw	a7,84(sp)
    1648:	05012c23          	sw	a6,88(sp)
    164c:	04a11e23          	sh	a0,92(sp)
    1650:	04b10f23          	sb	a1,94(sp)
    1654:	00040613          	mv	a2,s0
    1658:	c0892823          	sw	s0,-1008(s2)
    165c:	00000d93          	li	s11,0
    1660:	d65ff06f          	j	13c4 <main+0x2d0>
    1664:	0000006f          	j	1664 <main+0x570>
    1668:	00004e37          	lui	t3,0x4
    166c:	00004bb7          	lui	s7,0x4
    1670:	01c12a23          	sw	t3,20(sp)
    1674:	04010a13          	addi	s4,sp,64
    1678:	06010a93          	addi	s5,sp,96
    167c:	00004b37          	lui	s6,0x4
    1680:	00004937          	lui	s2,0x4
    1684:	01d12e23          	sw	t4,28(sp)
    1688:	01012c23          	sw	a6,24(sp)
    168c:	c00029f3          	rdcycle	s3
    1690:	00003337          	lui	t1,0x3
    1694:	0d430513          	addi	a0,t1,212 # 30d4 <__clz_tab+0x1b8>
    1698:	00004cb7          	lui	s9,0x4
    169c:	00003437          	lui	s0,0x3
    16a0:	c13ca623          	sw	s3,-1012(s9) # 3c0c <End_Time>
    16a4:	8c5ff0ef          	jal	ra,f68 <sc_printf>
    16a8:	22440513          	addi	a0,s0,548 # 3224 <__clz_tab+0x308>
    16ac:	8bdff0ef          	jal	ra,f68 <sc_printf>
    16b0:	00003637          	lui	a2,0x3
    16b4:	0e460513          	addi	a0,a2,228 # 30e4 <__clz_tab+0x1c8>
    16b8:	8b1ff0ef          	jal	ra,f68 <sc_printf>
    16bc:	22440513          	addi	a0,s0,548
    16c0:	8a9ff0ef          	jal	ra,f68 <sc_printf>
    16c4:	c1092583          	lw	a1,-1008(s2) # 3c10 <Int_Glob>
    16c8:	00003937          	lui	s2,0x3
    16cc:	11c90513          	addi	a0,s2,284 # 311c <__clz_tab+0x200>
    16d0:	899ff0ef          	jal	ra,f68 <sc_printf>
    16d4:	00003437          	lui	s0,0x3
    16d8:	00500593          	li	a1,5
    16dc:	13840513          	addi	a0,s0,312 # 3138 <__clz_tab+0x21c>
    16e0:	889ff0ef          	jal	ra,f68 <sc_printf>
    16e4:	c18b2583          	lw	a1,-1000(s6) # 3c18 <Bool_Glob>
    16e8:	00003b37          	lui	s6,0x3
    16ec:	154b0513          	addi	a0,s6,340 # 3154 <__clz_tab+0x238>
    16f0:	879ff0ef          	jal	ra,f68 <sc_printf>
    16f4:	00100593          	li	a1,1
    16f8:	13840513          	addi	a0,s0,312
    16fc:	86dff0ef          	jal	ra,f68 <sc_printf>
    1700:	c2cbc583          	lbu	a1,-980(s7) # 3c2c <Ch_1_Glob>
    1704:	00003bb7          	lui	s7,0x3
    1708:	170b8513          	addi	a0,s7,368 # 3170 <__clz_tab+0x254>
    170c:	85dff0ef          	jal	ra,f68 <sc_printf>
    1710:	000039b7          	lui	s3,0x3
    1714:	04100593          	li	a1,65
    1718:	18c98513          	addi	a0,s3,396 # 318c <__clz_tab+0x270>
    171c:	84dff0ef          	jal	ra,f68 <sc_printf>
    1720:	01412283          	lw	t0,20(sp)
    1724:	00003737          	lui	a4,0x3
    1728:	1a870513          	addi	a0,a4,424 # 31a8 <__clz_tab+0x28c>
    172c:	c142c583          	lbu	a1,-1004(t0)
    1730:	00003bb7          	lui	s7,0x3
    1734:	00003b37          	lui	s6,0x3
    1738:	831ff0ef          	jal	ra,f68 <sc_printf>
    173c:	04200593          	li	a1,66
    1740:	18c98513          	addi	a0,s3,396
    1744:	825ff0ef          	jal	ra,f68 <sc_printf>
    1748:	080c2583          	lw	a1,128(s8)
    174c:	00003c37          	lui	s8,0x3
    1750:	1c4c0513          	addi	a0,s8,452 # 31c4 <__clz_tab+0x2a8>
    1754:	815ff0ef          	jal	ra,f68 <sc_printf>
    1758:	00700593          	li	a1,7
    175c:	13840513          	addi	a0,s0,312
    1760:	809ff0ef          	jal	ra,f68 <sc_printf>
    1764:	65cd2583          	lw	a1,1628(s10)
    1768:	00003d37          	lui	s10,0x3
    176c:	1e0d0513          	addi	a0,s10,480 # 31e0 <__clz_tab+0x2c4>
    1770:	ff8ff0ef          	jal	ra,f68 <sc_printf>
    1774:	000036b7          	lui	a3,0x3
    1778:	1fc68513          	addi	a0,a3,508 # 31fc <__clz_tab+0x2e0>
    177c:	fecff0ef          	jal	ra,f68 <sc_printf>
    1780:	000037b7          	lui	a5,0x3
    1784:	22878513          	addi	a0,a5,552 # 3228 <__clz_tab+0x30c>
    1788:	fe0ff0ef          	jal	ra,f68 <sc_printf>
    178c:	c244af83          	lw	t6,-988(s1)
    1790:	00003f37          	lui	t5,0x3
    1794:	234f0513          	addi	a0,t5,564 # 3234 <__clz_tab+0x318>
    1798:	000fa583          	lw	a1,0(t6)
    179c:	01e12623          	sw	t5,12(sp)
    17a0:	00003c37          	lui	s8,0x3
    17a4:	fc4ff0ef          	jal	ra,f68 <sc_printf>
    17a8:	000033b7          	lui	t2,0x3
    17ac:	25038513          	addi	a0,t2,592 # 3250 <__clz_tab+0x334>
    17b0:	fb8ff0ef          	jal	ra,f68 <sc_printf>
    17b4:	c244ae83          	lw	t4,-988(s1)
    17b8:	284c0513          	addi	a0,s8,644 # 3284 <__clz_tab+0x368>
    17bc:	000039b7          	lui	s3,0x3
    17c0:	004ea583          	lw	a1,4(t4)
    17c4:	00003937          	lui	s2,0x3
    17c8:	00004d37          	lui	s10,0x4
    17cc:	f9cff0ef          	jal	ra,f68 <sc_printf>
    17d0:	00000593          	li	a1,0
    17d4:	13840513          	addi	a0,s0,312
    17d8:	f90ff0ef          	jal	ra,f68 <sc_printf>
    17dc:	c244ae03          	lw	t3,-988(s1)
    17e0:	2a0b8513          	addi	a0,s7,672 # 32a0 <__clz_tab+0x384>
    17e4:	008e2583          	lw	a1,8(t3) # 4008 <Arr_2_Glob+0x2ac>
    17e8:	f80ff0ef          	jal	ra,f68 <sc_printf>
    17ec:	00200593          	li	a1,2
    17f0:	13840513          	addi	a0,s0,312
    17f4:	f74ff0ef          	jal	ra,f68 <sc_printf>
    17f8:	c244a883          	lw	a7,-988(s1)
    17fc:	2bcb0513          	addi	a0,s6,700 # 32bc <__clz_tab+0x3a0>
    1800:	00c8a583          	lw	a1,12(a7)
    1804:	f64ff0ef          	jal	ra,f68 <sc_printf>
    1808:	01100593          	li	a1,17
    180c:	13840513          	addi	a0,s0,312
    1810:	f58ff0ef          	jal	ra,f68 <sc_printf>
    1814:	c244a483          	lw	s1,-988(s1)
    1818:	2d898513          	addi	a0,s3,728 # 32d8 <__clz_tab+0x3bc>
    181c:	01048593          	addi	a1,s1,16
    1820:	f48ff0ef          	jal	ra,f68 <sc_printf>
    1824:	2f490513          	addi	a0,s2,756 # 32f4 <__clz_tab+0x3d8>
    1828:	f40ff0ef          	jal	ra,f68 <sc_printf>
    182c:	00003837          	lui	a6,0x3
    1830:	32c80513          	addi	a0,a6,812 # 332c <__clz_tab+0x410>
    1834:	f34ff0ef          	jal	ra,f68 <sc_printf>
    1838:	c28d2583          	lw	a1,-984(s10) # 3c28 <Next_Ptr_Glob>
    183c:	00c12503          	lw	a0,12(sp)
    1840:	0005a583          	lw	a1,0(a1)
    1844:	23450513          	addi	a0,a0,564
    1848:	f20ff0ef          	jal	ra,f68 <sc_printf>
    184c:	00003337          	lui	t1,0x3
    1850:	34030513          	addi	a0,t1,832 # 3340 <__clz_tab+0x424>
    1854:	f14ff0ef          	jal	ra,f68 <sc_printf>
    1858:	c28d2603          	lw	a2,-984(s10)
    185c:	284c0513          	addi	a0,s8,644
    1860:	00003c37          	lui	s8,0x3
    1864:	00462583          	lw	a1,4(a2)
    1868:	f00ff0ef          	jal	ra,f68 <sc_printf>
    186c:	00000593          	li	a1,0
    1870:	13840513          	addi	a0,s0,312
    1874:	ef4ff0ef          	jal	ra,f68 <sc_printf>
    1878:	c28d2283          	lw	t0,-984(s10)
    187c:	2a0b8513          	addi	a0,s7,672
    1880:	00003bb7          	lui	s7,0x3
    1884:	0082a583          	lw	a1,8(t0)
    1888:	ee0ff0ef          	jal	ra,f68 <sc_printf>
    188c:	00100593          	li	a1,1
    1890:	13840513          	addi	a0,s0,312
    1894:	ed4ff0ef          	jal	ra,f68 <sc_printf>
    1898:	c28d2703          	lw	a4,-984(s10)
    189c:	2bcb0513          	addi	a0,s6,700
    18a0:	00c72583          	lw	a1,12(a4)
    18a4:	ec4ff0ef          	jal	ra,f68 <sc_printf>
    18a8:	01200593          	li	a1,18
    18ac:	13840513          	addi	a0,s0,312
    18b0:	eb8ff0ef          	jal	ra,f68 <sc_printf>
    18b4:	c28d2683          	lw	a3,-984(s10)
    18b8:	2d898513          	addi	a0,s3,728
    18bc:	00100993          	li	s3,1
    18c0:	01068593          	addi	a1,a3,16
    18c4:	ea4ff0ef          	jal	ra,f68 <sc_printf>
    18c8:	2f490513          	addi	a0,s2,756
    18cc:	e9cff0ef          	jal	ra,f68 <sc_printf>
    18d0:	01812583          	lw	a1,24(sp)
    18d4:	000037b7          	lui	a5,0x3
    18d8:	38078513          	addi	a0,a5,896 # 3380 <__clz_tab+0x464>
    18dc:	e8cff0ef          	jal	ra,f68 <sc_printf>
    18e0:	00500593          	li	a1,5
    18e4:	13840513          	addi	a0,s0,312
    18e8:	e80ff0ef          	jal	ra,f68 <sc_printf>
    18ec:	01c12583          	lw	a1,28(sp)
    18f0:	00003fb7          	lui	t6,0x3
    18f4:	39cf8513          	addi	a0,t6,924 # 339c <__clz_tab+0x480>
    18f8:	e70ff0ef          	jal	ra,f68 <sc_printf>
    18fc:	00d00593          	li	a1,13
    1900:	13840513          	addi	a0,s0,312
    1904:	e64ff0ef          	jal	ra,f68 <sc_printf>
    1908:	00003f37          	lui	t5,0x3
    190c:	3b8f0513          	addi	a0,t5,952 # 33b8 <__clz_tab+0x49c>
    1910:	00700593          	li	a1,7
    1914:	e54ff0ef          	jal	ra,f68 <sc_printf>
    1918:	00700593          	li	a1,7
    191c:	13840513          	addi	a0,s0,312
    1920:	e48ff0ef          	jal	ra,f68 <sc_printf>
    1924:	000d8593          	mv	a1,s11
    1928:	00003db7          	lui	s11,0x3
    192c:	3d4d8513          	addi	a0,s11,980 # 33d4 <__clz_tab+0x4b8>
    1930:	e38ff0ef          	jal	ra,f68 <sc_printf>
    1934:	00100593          	li	a1,1
    1938:	13840513          	addi	a0,s0,312
    193c:	e2cff0ef          	jal	ra,f68 <sc_printf>
    1940:	000a8593          	mv	a1,s5
    1944:	00003ab7          	lui	s5,0x3
    1948:	3f0a8513          	addi	a0,s5,1008 # 33f0 <__clz_tab+0x4d4>
    194c:	e1cff0ef          	jal	ra,f68 <sc_printf>
    1950:	00003437          	lui	s0,0x3
    1954:	40c40513          	addi	a0,s0,1036 # 340c <__clz_tab+0x4f0>
    1958:	e10ff0ef          	jal	ra,f68 <sc_printf>
    195c:	000a0593          	mv	a1,s4
    1960:	00003a37          	lui	s4,0x3
    1964:	444a0513          	addi	a0,s4,1092 # 3444 <__clz_tab+0x528>
    1968:	e00ff0ef          	jal	ra,f68 <sc_printf>
    196c:	460c0513          	addi	a0,s8,1120 # 3460 <__clz_tab+0x544>
    1970:	df8ff0ef          	jal	ra,f68 <sc_printf>
    1974:	224b8513          	addi	a0,s7,548 # 3224 <__clz_tab+0x308>
    1978:	df0ff0ef          	jal	ra,f68 <sc_printf>
    197c:	00004eb7          	lui	t4,0x4
    1980:	c0cca383          	lw	t2,-1012(s9)
    1984:	c20eab03          	lw	s6,-992(t4) # 3c20 <Begin_Time>
    1988:	00004e37          	lui	t3,0x4
    198c:	41638933          	sub	s2,t2,s6
    1990:	c12e2423          	sw	s2,-1016(t3) # 3c08 <User_Time>
    1994:	0d29dc63          	ble	s2,s3,1a6c <main+0x978>
    1998:	01012883          	lw	a7,16(sp)
    199c:	000f40b7          	lui	ra,0xf4
    19a0:	24008613          	addi	a2,ra,576 # f4240 <__C_STACK_TOP__+0xe4240>
    19a4:	02c88833          	mul	a6,a7,a2
    19a8:	00003d37          	lui	s10,0x3
    19ac:	00088593          	mv	a1,a7
    19b0:	000044b7          	lui	s1,0x4
    19b4:	00004db7          	lui	s11,0x4
    19b8:	4f0d0513          	addi	a0,s10,1264 # 34f0 <__clz_tab+0x5d4>
    19bc:	03194333          	div	t1,s2,a7
    19c0:	032842b3          	div	t0,a6,s2
    19c4:	c064a223          	sw	t1,-1020(s1) # 3c04 <Microseconds>
    19c8:	c05da023          	sw	t0,-1024(s11) # 3c00 <__BSS_START__>
    19cc:	d9cff0ef          	jal	ra,f68 <sc_printf>
    19d0:	c0cca603          	lw	a2,-1012(s9)
    19d4:	00004537          	lui	a0,0x4
    19d8:	00004cb7          	lui	s9,0x4
    19dc:	c0852683          	lw	a3,-1016(a0) # 3c08 <User_Time>
    19e0:	c20ca583          	lw	a1,-992(s9) # 3c20 <Begin_Time>
    19e4:	00003737          	lui	a4,0x3
    19e8:	51070513          	addi	a0,a4,1296 # 3510 <__clz_tab+0x5f4>
    19ec:	d7cff0ef          	jal	ra,f68 <sc_printf>
    19f0:	c044a583          	lw	a1,-1020(s1)
    19f4:	00003637          	lui	a2,0x3
    19f8:	53860513          	addi	a0,a2,1336 # 3538 <__clz_tab+0x61c>
    19fc:	d6cff0ef          	jal	ra,f68 <sc_printf>
    1a00:	c00da583          	lw	a1,-1024(s11)
    1a04:	000036b7          	lui	a3,0x3
    1a08:	56c68513          	addi	a0,a3,1388 # 356c <__clz_tab+0x650>
    1a0c:	d5cff0ef          	jal	ra,f68 <sc_printf>
    1a10:	0bc12083          	lw	ra,188(sp)
    1a14:	0b812403          	lw	s0,184(sp)
    1a18:	0b412483          	lw	s1,180(sp)
    1a1c:	0b012903          	lw	s2,176(sp)
    1a20:	0ac12983          	lw	s3,172(sp)
    1a24:	0a812a03          	lw	s4,168(sp)
    1a28:	0a412a83          	lw	s5,164(sp)
    1a2c:	0a012b03          	lw	s6,160(sp)
    1a30:	09c12b83          	lw	s7,156(sp)
    1a34:	09812c03          	lw	s8,152(sp)
    1a38:	09412c83          	lw	s9,148(sp)
    1a3c:	09012d03          	lw	s10,144(sp)
    1a40:	08c12d83          	lw	s11,140(sp)
    1a44:	00000513          	li	a0,0
    1a48:	0c010113          	addi	sp,sp,192
    1a4c:	00008067          	ret
    1a50:	00100f13          	li	t5,1
    1a54:	01eda423          	sw	t5,8(s11)
    1a58:	b11ff06f          	j	1568 <main+0x474>
    1a5c:	000da423          	sw	zero,8(s11)
    1a60:	b09ff06f          	j	1568 <main+0x474>
    1a64:	001da423          	sw	ra,8(s11)
    1a68:	b01ff06f          	j	1568 <main+0x474>
    1a6c:	000037b7          	lui	a5,0x3
    1a70:	49878513          	addi	a0,a5,1176 # 3498 <__clz_tab+0x57c>
    1a74:	cf4ff0ef          	jal	ra,f68 <sc_printf>
    1a78:	000035b7          	lui	a1,0x3
    1a7c:	4d058513          	addi	a0,a1,1232 # 34d0 <__clz_tab+0x5b4>
    1a80:	ce8ff0ef          	jal	ra,f68 <sc_printf>
    1a84:	224b8513          	addi	a0,s7,548
    1a88:	ce0ff0ef          	jal	ra,f68 <sc_printf>
    1a8c:	f85ff06f          	j	1a10 <main+0x91c>
    1a90:	0000                	unimp
	...

00001a94 <atoi>:
    1a94:	00a00613          	li	a2,10
    1a98:	00000593          	li	a1,0
    1a9c:	2300006f          	j	1ccc <strtol>

00001aa0 <_atoi_r>:
    1aa0:	00a00693          	li	a3,10
    1aa4:	00000613          	li	a2,0
    1aa8:	1ec0006f          	j	1c94 <_strtol_r>

00001aac <strnlen>:
    1aac:	00b505b3          	add	a1,a0,a1
    1ab0:	00050793          	mv	a5,a0
    1ab4:	00b78663          	beq	a5,a1,1ac0 <strnlen+0x14>
    1ab8:	0007c703          	lbu	a4,0(a5)
    1abc:	00071663          	bnez	a4,1ac8 <strnlen+0x1c>
    1ac0:	40a78533          	sub	a0,a5,a0
    1ac4:	00008067          	ret
    1ac8:	00178793          	addi	a5,a5,1
    1acc:	fe9ff06f          	j	1ab4 <strnlen+0x8>
    1ad0:	0000                	unimp
	...

00001ad4 <_strtol_l.isra.0>:
    1ad4:	fd010113          	addi	sp,sp,-48
    1ad8:	03212023          	sw	s2,32(sp)
    1adc:	01312e23          	sw	s3,28(sp)
    1ae0:	02112623          	sw	ra,44(sp)
    1ae4:	02812423          	sw	s0,40(sp)
    1ae8:	02912223          	sw	s1,36(sp)
    1aec:	00050993          	mv	s3,a0
    1af0:	00058913          	mv	s2,a1
    1af4:	00190493          	addi	s1,s2,1
    1af8:	fff4c403          	lbu	s0,-1(s1)
    1afc:	00070513          	mv	a0,a4
    1b00:	00d12623          	sw	a3,12(sp)
    1b04:	00c12423          	sw	a2,8(sp)
    1b08:	00b12223          	sw	a1,4(sp)
    1b0c:	00e12023          	sw	a4,0(sp)
    1b10:	27c000ef          	jal	ra,1d8c <__locale_ctype_ptr_l>
    1b14:	00850533          	add	a0,a0,s0
    1b18:	00154783          	lbu	a5,1(a0)
    1b1c:	00012703          	lw	a4,0(sp)
    1b20:	00412583          	lw	a1,4(sp)
    1b24:	0087f793          	andi	a5,a5,8
    1b28:	00812603          	lw	a2,8(sp)
    1b2c:	00c12683          	lw	a3,12(sp)
    1b30:	0a079663          	bnez	a5,1bdc <_strtol_l.isra.0+0x108>
    1b34:	02d00793          	li	a5,45
    1b38:	0af41663          	bne	s0,a5,1be4 <_strtol_l.isra.0+0x110>
    1b3c:	0004c783          	lbu	a5,0(s1)
    1b40:	00100313          	li	t1,1
    1b44:	00290493          	addi	s1,s2,2
    1b48:	12068e63          	beqz	a3,1c84 <_strtol_l.isra.0+0x1b0>
    1b4c:	01000713          	li	a4,16
    1b50:	02e69463          	bne	a3,a4,1b78 <_strtol_l.isra.0+0xa4>
    1b54:	03000713          	li	a4,48
    1b58:	02e79063          	bne	a5,a4,1b78 <_strtol_l.isra.0+0xa4>
    1b5c:	0004c783          	lbu	a5,0(s1)
    1b60:	05800713          	li	a4,88
    1b64:	0df7f793          	andi	a5,a5,223
    1b68:	10e79663          	bne	a5,a4,1c74 <_strtol_l.isra.0+0x1a0>
    1b6c:	0014c783          	lbu	a5,1(s1)
    1b70:	01000693          	li	a3,16
    1b74:	00248493          	addi	s1,s1,2
    1b78:	800008b7          	lui	a7,0x80000
    1b7c:	00031463          	bnez	t1,1b84 <_strtol_l.isra.0+0xb0>
    1b80:	fff8c893          	not	a7,a7
    1b84:	02d8ff33          	remu	t5,a7,a3
    1b88:	00000813          	li	a6,0
    1b8c:	00000513          	li	a0,0
    1b90:	00900f93          	li	t6,9
    1b94:	01900e93          	li	t4,25
    1b98:	fff00293          	li	t0,-1
    1b9c:	02d8de33          	divu	t3,a7,a3
    1ba0:	fd078713          	addi	a4,a5,-48
    1ba4:	06efe063          	bltu	t6,a4,1c04 <_strtol_l.isra.0+0x130>
    1ba8:	00070793          	mv	a5,a4
    1bac:	06d7dc63          	ble	a3,a5,1c24 <_strtol_l.isra.0+0x150>
    1bb0:	02580063          	beq	a6,t0,1bd0 <_strtol_l.isra.0+0xfc>
    1bb4:	fff00813          	li	a6,-1
    1bb8:	00ae6c63          	bltu	t3,a0,1bd0 <_strtol_l.isra.0+0xfc>
    1bbc:	00ae1463          	bne	t3,a0,1bc4 <_strtol_l.isra.0+0xf0>
    1bc0:	00ff4863          	blt	t5,a5,1bd0 <_strtol_l.isra.0+0xfc>
    1bc4:	00100813          	li	a6,1
    1bc8:	02a68533          	mul	a0,a3,a0
    1bcc:	00a78533          	add	a0,a5,a0
    1bd0:	00148493          	addi	s1,s1,1
    1bd4:	fff4c783          	lbu	a5,-1(s1)
    1bd8:	fc9ff06f          	j	1ba0 <_strtol_l.isra.0+0xcc>
    1bdc:	00048913          	mv	s2,s1
    1be0:	f15ff06f          	j	1af4 <_strtol_l.isra.0+0x20>
    1be4:	02b00793          	li	a5,43
    1be8:	00f40863          	beq	s0,a5,1bf8 <_strtol_l.isra.0+0x124>
    1bec:	00040793          	mv	a5,s0
    1bf0:	00000313          	li	t1,0
    1bf4:	f55ff06f          	j	1b48 <_strtol_l.isra.0+0x74>
    1bf8:	0004c783          	lbu	a5,0(s1)
    1bfc:	00290493          	addi	s1,s2,2
    1c00:	ff1ff06f          	j	1bf0 <_strtol_l.isra.0+0x11c>
    1c04:	fbf78713          	addi	a4,a5,-65
    1c08:	00eee663          	bltu	t4,a4,1c14 <_strtol_l.isra.0+0x140>
    1c0c:	fc978793          	addi	a5,a5,-55
    1c10:	f9dff06f          	j	1bac <_strtol_l.isra.0+0xd8>
    1c14:	f9f78713          	addi	a4,a5,-97
    1c18:	00eee663          	bltu	t4,a4,1c24 <_strtol_l.isra.0+0x150>
    1c1c:	fa978793          	addi	a5,a5,-87
    1c20:	f8dff06f          	j	1bac <_strtol_l.isra.0+0xd8>
    1c24:	fff00793          	li	a5,-1
    1c28:	02f81863          	bne	a6,a5,1c58 <_strtol_l.isra.0+0x184>
    1c2c:	02200793          	li	a5,34
    1c30:	00f9a023          	sw	a5,0(s3)
    1c34:	00088513          	mv	a0,a7
    1c38:	02061863          	bnez	a2,1c68 <_strtol_l.isra.0+0x194>
    1c3c:	02c12083          	lw	ra,44(sp)
    1c40:	02812403          	lw	s0,40(sp)
    1c44:	02412483          	lw	s1,36(sp)
    1c48:	02012903          	lw	s2,32(sp)
    1c4c:	01c12983          	lw	s3,28(sp)
    1c50:	03010113          	addi	sp,sp,48
    1c54:	00008067          	ret
    1c58:	00030463          	beqz	t1,1c60 <_strtol_l.isra.0+0x18c>
    1c5c:	40a00533          	neg	a0,a0
    1c60:	fc060ee3          	beqz	a2,1c3c <_strtol_l.isra.0+0x168>
    1c64:	00080463          	beqz	a6,1c6c <_strtol_l.isra.0+0x198>
    1c68:	fff48593          	addi	a1,s1,-1
    1c6c:	00b62023          	sw	a1,0(a2)
    1c70:	fcdff06f          	j	1c3c <_strtol_l.isra.0+0x168>
    1c74:	03000793          	li	a5,48
    1c78:	f00690e3          	bnez	a3,1b78 <_strtol_l.isra.0+0xa4>
    1c7c:	00800693          	li	a3,8
    1c80:	ef9ff06f          	j	1b78 <_strtol_l.isra.0+0xa4>
    1c84:	03000713          	li	a4,48
    1c88:	ece78ae3          	beq	a5,a4,1b5c <_strtol_l.isra.0+0x88>
    1c8c:	00a00693          	li	a3,10
    1c90:	ee9ff06f          	j	1b78 <_strtol_l.isra.0+0xa4>

00001c94 <_strtol_r>:
    1c94:	000047b7          	lui	a5,0x4
    1c98:	bc47a783          	lw	a5,-1084(a5) # 3bc4 <_impure_ptr>
    1c9c:	0347a703          	lw	a4,52(a5)
    1ca0:	00071663          	bnez	a4,1cac <_strtol_r+0x18>
    1ca4:	00004737          	lui	a4,0x4
    1ca8:	a3870713          	addi	a4,a4,-1480 # 3a38 <__global_locale>
    1cac:	e29ff06f          	j	1ad4 <_strtol_l.isra.0>

00001cb0 <strtol_l>:
    1cb0:	000047b7          	lui	a5,0x4
    1cb4:	00068713          	mv	a4,a3
    1cb8:	00060693          	mv	a3,a2
    1cbc:	00058613          	mv	a2,a1
    1cc0:	00050593          	mv	a1,a0
    1cc4:	bc47a503          	lw	a0,-1084(a5) # 3bc4 <_impure_ptr>
    1cc8:	e0dff06f          	j	1ad4 <_strtol_l.isra.0>

00001ccc <strtol>:
    1ccc:	000047b7          	lui	a5,0x4
    1cd0:	bc47a783          	lw	a5,-1084(a5) # 3bc4 <_impure_ptr>
    1cd4:	00060693          	mv	a3,a2
    1cd8:	0347a703          	lw	a4,52(a5)
    1cdc:	00071663          	bnez	a4,1ce8 <strtol+0x1c>
    1ce0:	00004737          	lui	a4,0x4
    1ce4:	a3870713          	addi	a4,a4,-1480 # 3a38 <__global_locale>
    1ce8:	00058613          	mv	a2,a1
    1cec:	00050593          	mv	a1,a0
    1cf0:	00078513          	mv	a0,a5
    1cf4:	de1ff06f          	j	1ad4 <_strtol_l.isra.0>

00001cf8 <_setlocale_r>:
    1cf8:	ff010113          	addi	sp,sp,-16
    1cfc:	00912223          	sw	s1,4(sp)
    1d00:	00112623          	sw	ra,12(sp)
    1d04:	00812423          	sw	s0,8(sp)
    1d08:	000034b7          	lui	s1,0x3
    1d0c:	04060263          	beqz	a2,1d50 <_setlocale_r+0x58>
    1d10:	000035b7          	lui	a1,0x3
    1d14:	60458593          	addi	a1,a1,1540 # 3604 <__clz_tab+0x6e8>
    1d18:	00060513          	mv	a0,a2
    1d1c:	00060413          	mv	s0,a2
    1d20:	128000ef          	jal	ra,1e48 <strcmp>
    1d24:	02050663          	beqz	a0,1d50 <_setlocale_r+0x58>
    1d28:	60048593          	addi	a1,s1,1536 # 3600 <__clz_tab+0x6e4>
    1d2c:	00040513          	mv	a0,s0
    1d30:	118000ef          	jal	ra,1e48 <strcmp>
    1d34:	00050e63          	beqz	a0,1d50 <_setlocale_r+0x58>
    1d38:	000035b7          	lui	a1,0x3
    1d3c:	28058593          	addi	a1,a1,640 # 3280 <__clz_tab+0x364>
    1d40:	00040513          	mv	a0,s0
    1d44:	104000ef          	jal	ra,1e48 <strcmp>
    1d48:	00000793          	li	a5,0
    1d4c:	00051463          	bnez	a0,1d54 <_setlocale_r+0x5c>
    1d50:	60048793          	addi	a5,s1,1536
    1d54:	00c12083          	lw	ra,12(sp)
    1d58:	00812403          	lw	s0,8(sp)
    1d5c:	00412483          	lw	s1,4(sp)
    1d60:	00078513          	mv	a0,a5
    1d64:	01010113          	addi	sp,sp,16
    1d68:	00008067          	ret

00001d6c <__locale_mb_cur_max>:
    1d6c:	000047b7          	lui	a5,0x4
    1d70:	bc47a783          	lw	a5,-1084(a5) # 3bc4 <_impure_ptr>
    1d74:	0347a783          	lw	a5,52(a5)
    1d78:	00079663          	bnez	a5,1d84 <__locale_mb_cur_max+0x18>
    1d7c:	000047b7          	lui	a5,0x4
    1d80:	a3878793          	addi	a5,a5,-1480 # 3a38 <__global_locale>
    1d84:	1287c503          	lbu	a0,296(a5)
    1d88:	00008067          	ret

00001d8c <__locale_ctype_ptr_l>:
    1d8c:	0ec52503          	lw	a0,236(a0)
    1d90:	00008067          	ret

00001d94 <__locale_ctype_ptr>:
    1d94:	000047b7          	lui	a5,0x4
    1d98:	bc47a783          	lw	a5,-1084(a5) # 3bc4 <_impure_ptr>
    1d9c:	0347a783          	lw	a5,52(a5)
    1da0:	00079663          	bnez	a5,1dac <__locale_ctype_ptr+0x18>
    1da4:	000047b7          	lui	a5,0x4
    1da8:	a3878793          	addi	a5,a5,-1480 # 3a38 <__global_locale>
    1dac:	0ec7a503          	lw	a0,236(a5)
    1db0:	00008067          	ret

00001db4 <setlocale>:
    1db4:	000047b7          	lui	a5,0x4
    1db8:	00058613          	mv	a2,a1
    1dbc:	00050593          	mv	a1,a0
    1dc0:	bc47a503          	lw	a0,-1084(a5) # 3bc4 <_impure_ptr>
    1dc4:	f35ff06f          	j	1cf8 <_setlocale_r>
    1dc8:	0000                	unimp
	...

00001dcc <_mbtowc_r>:
    1dcc:	000047b7          	lui	a5,0x4
    1dd0:	bc47a783          	lw	a5,-1084(a5) # 3bc4 <_impure_ptr>
    1dd4:	0347a783          	lw	a5,52(a5)
    1dd8:	00079663          	bnez	a5,1de4 <_mbtowc_r+0x18>
    1ddc:	000047b7          	lui	a5,0x4
    1de0:	a3878793          	addi	a5,a5,-1480 # 3a38 <__global_locale>
    1de4:	0e47a303          	lw	t1,228(a5)
    1de8:	00030067          	jr	t1

00001dec <__ascii_mbtowc>:
    1dec:	02059a63          	bnez	a1,1e20 <__ascii_mbtowc+0x34>
    1df0:	ff010113          	addi	sp,sp,-16
    1df4:	00c10593          	addi	a1,sp,12
    1df8:	00000513          	li	a0,0
    1dfc:	00060e63          	beqz	a2,1e18 <__ascii_mbtowc+0x2c>
    1e00:	ffe00513          	li	a0,-2
    1e04:	00068a63          	beqz	a3,1e18 <__ascii_mbtowc+0x2c>
    1e08:	00064783          	lbu	a5,0(a2)
    1e0c:	00f5a023          	sw	a5,0(a1)
    1e10:	00064503          	lbu	a0,0(a2)
    1e14:	00a03533          	snez	a0,a0
    1e18:	01010113          	addi	sp,sp,16
    1e1c:	00008067          	ret
    1e20:	00000513          	li	a0,0
    1e24:	02060063          	beqz	a2,1e44 <__ascii_mbtowc+0x58>
    1e28:	ffe00513          	li	a0,-2
    1e2c:	00068c63          	beqz	a3,1e44 <__ascii_mbtowc+0x58>
    1e30:	00064783          	lbu	a5,0(a2)
    1e34:	00f5a023          	sw	a5,0(a1)
    1e38:	00064503          	lbu	a0,0(a2)
    1e3c:	00a03533          	snez	a0,a0
    1e40:	00008067          	ret
    1e44:	00008067          	ret

00001e48 <strcmp>:
    1e48:	00b56733          	or	a4,a0,a1
    1e4c:	fff00393          	li	t2,-1
    1e50:	00377713          	andi	a4,a4,3
    1e54:	10071063          	bnez	a4,1f54 <strcmp+0x10c>
    1e58:	7f7f87b7          	lui	a5,0x7f7f8
    1e5c:	f7f78793          	addi	a5,a5,-129 # 7f7f7f7f <__C_STACK_TOP__+0x7f7e7f7f>
    1e60:	00052603          	lw	a2,0(a0)
    1e64:	0005a683          	lw	a3,0(a1)
    1e68:	00f672b3          	and	t0,a2,a5
    1e6c:	00f66333          	or	t1,a2,a5
    1e70:	00f282b3          	add	t0,t0,a5
    1e74:	0062e2b3          	or	t0,t0,t1
    1e78:	10729263          	bne	t0,t2,1f7c <strcmp+0x134>
    1e7c:	08d61663          	bne	a2,a3,1f08 <strcmp+0xc0>
    1e80:	00452603          	lw	a2,4(a0)
    1e84:	0045a683          	lw	a3,4(a1)
    1e88:	00f672b3          	and	t0,a2,a5
    1e8c:	00f66333          	or	t1,a2,a5
    1e90:	00f282b3          	add	t0,t0,a5
    1e94:	0062e2b3          	or	t0,t0,t1
    1e98:	0c729e63          	bne	t0,t2,1f74 <strcmp+0x12c>
    1e9c:	06d61663          	bne	a2,a3,1f08 <strcmp+0xc0>
    1ea0:	00852603          	lw	a2,8(a0)
    1ea4:	0085a683          	lw	a3,8(a1)
    1ea8:	00f672b3          	and	t0,a2,a5
    1eac:	00f66333          	or	t1,a2,a5
    1eb0:	00f282b3          	add	t0,t0,a5
    1eb4:	0062e2b3          	or	t0,t0,t1
    1eb8:	0c729863          	bne	t0,t2,1f88 <strcmp+0x140>
    1ebc:	04d61663          	bne	a2,a3,1f08 <strcmp+0xc0>
    1ec0:	00c52603          	lw	a2,12(a0)
    1ec4:	00c5a683          	lw	a3,12(a1)
    1ec8:	00f672b3          	and	t0,a2,a5
    1ecc:	00f66333          	or	t1,a2,a5
    1ed0:	00f282b3          	add	t0,t0,a5
    1ed4:	0062e2b3          	or	t0,t0,t1
    1ed8:	0c729263          	bne	t0,t2,1f9c <strcmp+0x154>
    1edc:	02d61663          	bne	a2,a3,1f08 <strcmp+0xc0>
    1ee0:	01052603          	lw	a2,16(a0)
    1ee4:	0105a683          	lw	a3,16(a1)
    1ee8:	00f672b3          	and	t0,a2,a5
    1eec:	00f66333          	or	t1,a2,a5
    1ef0:	00f282b3          	add	t0,t0,a5
    1ef4:	0062e2b3          	or	t0,t0,t1
    1ef8:	0a729c63          	bne	t0,t2,1fb0 <strcmp+0x168>
    1efc:	01450513          	addi	a0,a0,20
    1f00:	01458593          	addi	a1,a1,20
    1f04:	f4d60ee3          	beq	a2,a3,1e60 <strcmp+0x18>
    1f08:	01061713          	slli	a4,a2,0x10
    1f0c:	01069793          	slli	a5,a3,0x10
    1f10:	00f71e63          	bne	a4,a5,1f2c <strcmp+0xe4>
    1f14:	01065713          	srli	a4,a2,0x10
    1f18:	0106d793          	srli	a5,a3,0x10
    1f1c:	40f70533          	sub	a0,a4,a5
    1f20:	0ff57593          	andi	a1,a0,255
    1f24:	02059063          	bnez	a1,1f44 <strcmp+0xfc>
    1f28:	00008067          	ret
    1f2c:	01075713          	srli	a4,a4,0x10
    1f30:	0107d793          	srli	a5,a5,0x10
    1f34:	40f70533          	sub	a0,a4,a5
    1f38:	0ff57593          	andi	a1,a0,255
    1f3c:	00059463          	bnez	a1,1f44 <strcmp+0xfc>
    1f40:	00008067          	ret
    1f44:	0ff77713          	andi	a4,a4,255
    1f48:	0ff7f793          	andi	a5,a5,255
    1f4c:	40f70533          	sub	a0,a4,a5
    1f50:	00008067          	ret
    1f54:	00054603          	lbu	a2,0(a0)
    1f58:	0005c683          	lbu	a3,0(a1)
    1f5c:	00150513          	addi	a0,a0,1
    1f60:	00158593          	addi	a1,a1,1
    1f64:	00d61463          	bne	a2,a3,1f6c <strcmp+0x124>
    1f68:	fe0616e3          	bnez	a2,1f54 <strcmp+0x10c>
    1f6c:	40d60533          	sub	a0,a2,a3
    1f70:	00008067          	ret
    1f74:	00450513          	addi	a0,a0,4
    1f78:	00458593          	addi	a1,a1,4
    1f7c:	fcd61ce3          	bne	a2,a3,1f54 <strcmp+0x10c>
    1f80:	00000513          	li	a0,0
    1f84:	00008067          	ret
    1f88:	00850513          	addi	a0,a0,8
    1f8c:	00858593          	addi	a1,a1,8
    1f90:	fcd612e3          	bne	a2,a3,1f54 <strcmp+0x10c>
    1f94:	00000513          	li	a0,0
    1f98:	00008067          	ret
    1f9c:	00c50513          	addi	a0,a0,12
    1fa0:	00c58593          	addi	a1,a1,12
    1fa4:	fad618e3          	bne	a2,a3,1f54 <strcmp+0x10c>
    1fa8:	00000513          	li	a0,0
    1fac:	00008067          	ret
    1fb0:	01050513          	addi	a0,a0,16
    1fb4:	01058593          	addi	a1,a1,16
    1fb8:	f8d61ee3          	bne	a2,a3,1f54 <strcmp+0x10c>
    1fbc:	00000513          	li	a0,0
    1fc0:	00008067          	ret

00001fc4 <_wctomb_r>:
    1fc4:	000047b7          	lui	a5,0x4
    1fc8:	bc47a783          	lw	a5,-1084(a5) # 3bc4 <_impure_ptr>
    1fcc:	0347a783          	lw	a5,52(a5)
    1fd0:	00079663          	bnez	a5,1fdc <_wctomb_r+0x18>
    1fd4:	000047b7          	lui	a5,0x4
    1fd8:	a3878793          	addi	a5,a5,-1480 # 3a38 <__global_locale>
    1fdc:	0e07a303          	lw	t1,224(a5)
    1fe0:	00030067          	jr	t1

00001fe4 <__ascii_wctomb>:
    1fe4:	02058463          	beqz	a1,200c <__ascii_wctomb+0x28>
    1fe8:	0ff00793          	li	a5,255
    1fec:	00c7fa63          	bleu	a2,a5,2000 <__ascii_wctomb+0x1c>
    1ff0:	08a00793          	li	a5,138
    1ff4:	00f52023          	sw	a5,0(a0)
    1ff8:	fff00513          	li	a0,-1
    1ffc:	00008067          	ret
    2000:	00c58023          	sb	a2,0(a1)
    2004:	00100513          	li	a0,1
    2008:	00008067          	ret
    200c:	00000513          	li	a0,0
    2010:	00008067          	ret

00002014 <__moddi3>:
    2014:	00000893          	li	a7,0
    2018:	0005dc63          	bgez	a1,2030 <__moddi3+0x1c>
    201c:	40a00533          	neg	a0,a0
    2020:	00a037b3          	snez	a5,a0
    2024:	40b005b3          	neg	a1,a1
    2028:	40f585b3          	sub	a1,a1,a5
    202c:	fff00893          	li	a7,-1
    2030:	0006da63          	bgez	a3,2044 <__moddi3+0x30>
    2034:	40c00633          	neg	a2,a2
    2038:	00c037b3          	snez	a5,a2
    203c:	40d006b3          	neg	a3,a3
    2040:	40f686b3          	sub	a3,a3,a5
    2044:	00060813          	mv	a6,a2
    2048:	00068313          	mv	t1,a3
    204c:	00050793          	mv	a5,a0
    2050:	00058713          	mv	a4,a1
    2054:	24069863          	bnez	a3,22a4 <__moddi3+0x290>
    2058:	000036b7          	lui	a3,0x3
    205c:	f1c68693          	addi	a3,a3,-228 # 2f1c <__clz_tab>
    2060:	0ec5f863          	bleu	a2,a1,2150 <__moddi3+0x13c>
    2064:	00010e37          	lui	t3,0x10
    2068:	0dc67a63          	bleu	t3,a2,213c <__moddi3+0x128>
    206c:	0ff00e13          	li	t3,255
    2070:	00ce7463          	bleu	a2,t3,2078 <__moddi3+0x64>
    2074:	00800313          	li	t1,8
    2078:	00665e33          	srl	t3,a2,t1
    207c:	01c686b3          	add	a3,a3,t3
    2080:	0006ce03          	lbu	t3,0(a3)
    2084:	006e0e33          	add	t3,t3,t1
    2088:	02000313          	li	t1,32
    208c:	41c30333          	sub	t1,t1,t3
    2090:	00030c63          	beqz	t1,20a8 <__moddi3+0x94>
    2094:	006595b3          	sll	a1,a1,t1
    2098:	01c55e33          	srl	t3,a0,t3
    209c:	00661833          	sll	a6,a2,t1
    20a0:	00be6733          	or	a4,t3,a1
    20a4:	006517b3          	sll	a5,a0,t1
    20a8:	01085593          	srli	a1,a6,0x10
    20ac:	02b77633          	remu	a2,a4,a1
    20b0:	01081513          	slli	a0,a6,0x10
    20b4:	01055513          	srli	a0,a0,0x10
    20b8:	0107d693          	srli	a3,a5,0x10
    20bc:	02b75733          	divu	a4,a4,a1
    20c0:	01061613          	slli	a2,a2,0x10
    20c4:	00d666b3          	or	a3,a2,a3
    20c8:	02e50733          	mul	a4,a0,a4
    20cc:	00e6fa63          	bleu	a4,a3,20e0 <__moddi3+0xcc>
    20d0:	010686b3          	add	a3,a3,a6
    20d4:	0106e663          	bltu	a3,a6,20e0 <__moddi3+0xcc>
    20d8:	00e6f463          	bleu	a4,a3,20e0 <__moddi3+0xcc>
    20dc:	010686b3          	add	a3,a3,a6
    20e0:	40e686b3          	sub	a3,a3,a4
    20e4:	02b6f733          	remu	a4,a3,a1
    20e8:	01079793          	slli	a5,a5,0x10
    20ec:	0107d793          	srli	a5,a5,0x10
    20f0:	02b6d6b3          	divu	a3,a3,a1
    20f4:	02d506b3          	mul	a3,a0,a3
    20f8:	01071513          	slli	a0,a4,0x10
    20fc:	00f567b3          	or	a5,a0,a5
    2100:	00d7fa63          	bleu	a3,a5,2114 <__moddi3+0x100>
    2104:	010787b3          	add	a5,a5,a6
    2108:	0107e663          	bltu	a5,a6,2114 <__moddi3+0x100>
    210c:	00d7f463          	bleu	a3,a5,2114 <__moddi3+0x100>
    2110:	010787b3          	add	a5,a5,a6
    2114:	40d787b3          	sub	a5,a5,a3
    2118:	0067d533          	srl	a0,a5,t1
    211c:	00000593          	li	a1,0
    2120:	00088c63          	beqz	a7,2138 <__moddi3+0x124>
    2124:	40a007b3          	neg	a5,a0
    2128:	00f03733          	snez	a4,a5
    212c:	40b005b3          	neg	a1,a1
    2130:	00078513          	mv	a0,a5
    2134:	40e585b3          	sub	a1,a1,a4
    2138:	00008067          	ret
    213c:	01000e37          	lui	t3,0x1000
    2140:	01000313          	li	t1,16
    2144:	f3c66ae3          	bltu	a2,t3,2078 <__moddi3+0x64>
    2148:	01800313          	li	t1,24
    214c:	f2dff06f          	j	2078 <__moddi3+0x64>
    2150:	00061663          	bnez	a2,215c <__moddi3+0x148>
    2154:	00100813          	li	a6,1
    2158:	02685833          	divu	a6,a6,t1
    215c:	00010737          	lui	a4,0x10
    2160:	0ae87263          	bleu	a4,a6,2204 <__moddi3+0x1f0>
    2164:	0ff00713          	li	a4,255
    2168:	01077463          	bleu	a6,a4,2170 <__moddi3+0x15c>
    216c:	00800313          	li	t1,8
    2170:	00685733          	srl	a4,a6,t1
    2174:	00e686b3          	add	a3,a3,a4
    2178:	0006ce03          	lbu	t3,0(a3)
    217c:	006e0e33          	add	t3,t3,t1
    2180:	02000313          	li	t1,32
    2184:	41c30333          	sub	t1,t1,t3
    2188:	08031863          	bnez	t1,2218 <__moddi3+0x204>
    218c:	410585b3          	sub	a1,a1,a6
    2190:	01085693          	srli	a3,a6,0x10
    2194:	01081513          	slli	a0,a6,0x10
    2198:	01055513          	srli	a0,a0,0x10
    219c:	0107d613          	srli	a2,a5,0x10
    21a0:	02d5f733          	remu	a4,a1,a3
    21a4:	02d5d5b3          	divu	a1,a1,a3
    21a8:	01071713          	slli	a4,a4,0x10
    21ac:	00c76733          	or	a4,a4,a2
    21b0:	02b505b3          	mul	a1,a0,a1
    21b4:	00b77a63          	bleu	a1,a4,21c8 <__moddi3+0x1b4>
    21b8:	01070733          	add	a4,a4,a6
    21bc:	01076663          	bltu	a4,a6,21c8 <__moddi3+0x1b4>
    21c0:	00b77463          	bleu	a1,a4,21c8 <__moddi3+0x1b4>
    21c4:	01070733          	add	a4,a4,a6
    21c8:	40b705b3          	sub	a1,a4,a1
    21cc:	02d5f733          	remu	a4,a1,a3
    21d0:	01079793          	slli	a5,a5,0x10
    21d4:	0107d793          	srli	a5,a5,0x10
    21d8:	02d5d5b3          	divu	a1,a1,a3
    21dc:	02b505b3          	mul	a1,a0,a1
    21e0:	01071513          	slli	a0,a4,0x10
    21e4:	00f567b3          	or	a5,a0,a5
    21e8:	00b7fa63          	bleu	a1,a5,21fc <__moddi3+0x1e8>
    21ec:	010787b3          	add	a5,a5,a6
    21f0:	0107e663          	bltu	a5,a6,21fc <__moddi3+0x1e8>
    21f4:	00b7f463          	bleu	a1,a5,21fc <__moddi3+0x1e8>
    21f8:	010787b3          	add	a5,a5,a6
    21fc:	40b787b3          	sub	a5,a5,a1
    2200:	f19ff06f          	j	2118 <__moddi3+0x104>
    2204:	01000737          	lui	a4,0x1000
    2208:	01000313          	li	t1,16
    220c:	f6e862e3          	bltu	a6,a4,2170 <__moddi3+0x15c>
    2210:	01800313          	li	t1,24
    2214:	f5dff06f          	j	2170 <__moddi3+0x15c>
    2218:	00681833          	sll	a6,a6,t1
    221c:	01c5deb3          	srl	t4,a1,t3
    2220:	006517b3          	sll	a5,a0,t1
    2224:	01c55e33          	srl	t3,a0,t3
    2228:	01085513          	srli	a0,a6,0x10
    222c:	02aed6b3          	divu	a3,t4,a0
    2230:	006595b3          	sll	a1,a1,t1
    2234:	00be6e33          	or	t3,t3,a1
    2238:	01081593          	slli	a1,a6,0x10
    223c:	0105d593          	srli	a1,a1,0x10
    2240:	010e5613          	srli	a2,t3,0x10
    2244:	02aef733          	remu	a4,t4,a0
    2248:	02d586b3          	mul	a3,a1,a3
    224c:	01071713          	slli	a4,a4,0x10
    2250:	00c76733          	or	a4,a4,a2
    2254:	00d77a63          	bleu	a3,a4,2268 <__moddi3+0x254>
    2258:	01070733          	add	a4,a4,a6
    225c:	01076663          	bltu	a4,a6,2268 <__moddi3+0x254>
    2260:	00d77463          	bleu	a3,a4,2268 <__moddi3+0x254>
    2264:	01070733          	add	a4,a4,a6
    2268:	40d70633          	sub	a2,a4,a3
    226c:	02a67733          	remu	a4,a2,a0
    2270:	010e1e13          	slli	t3,t3,0x10
    2274:	010e5e13          	srli	t3,t3,0x10
    2278:	02a65633          	divu	a2,a2,a0
    227c:	01071713          	slli	a4,a4,0x10
    2280:	02c58633          	mul	a2,a1,a2
    2284:	01c765b3          	or	a1,a4,t3
    2288:	00c5fa63          	bleu	a2,a1,229c <__moddi3+0x288>
    228c:	010585b3          	add	a1,a1,a6
    2290:	0105e663          	bltu	a1,a6,229c <__moddi3+0x288>
    2294:	00c5f463          	bleu	a2,a1,229c <__moddi3+0x288>
    2298:	010585b3          	add	a1,a1,a6
    229c:	40c585b3          	sub	a1,a1,a2
    22a0:	ef1ff06f          	j	2190 <__moddi3+0x17c>
    22a4:	e6d5eee3          	bltu	a1,a3,2120 <__moddi3+0x10c>
    22a8:	00010837          	lui	a6,0x10
    22ac:	0506fc63          	bleu	a6,a3,2304 <__moddi3+0x2f0>
    22b0:	0ff00e93          	li	t4,255
    22b4:	00deb833          	sltu	a6,t4,a3
    22b8:	00381813          	slli	a6,a6,0x3
    22bc:	00003e37          	lui	t3,0x3
    22c0:	f1ce0e13          	addi	t3,t3,-228 # 2f1c <__clz_tab>
    22c4:	0106d333          	srl	t1,a3,a6
    22c8:	01c30333          	add	t1,t1,t3
    22cc:	00034e83          	lbu	t4,0(t1)
    22d0:	02000e13          	li	t3,32
    22d4:	010e8eb3          	add	t4,t4,a6
    22d8:	41de0e33          	sub	t3,t3,t4
    22dc:	020e1e63          	bnez	t3,2318 <__moddi3+0x304>
    22e0:	00b6e463          	bltu	a3,a1,22e8 <__moddi3+0x2d4>
    22e4:	00c56a63          	bltu	a0,a2,22f8 <__moddi3+0x2e4>
    22e8:	40c507b3          	sub	a5,a0,a2
    22ec:	40d586b3          	sub	a3,a1,a3
    22f0:	00f53533          	sltu	a0,a0,a5
    22f4:	40a68733          	sub	a4,a3,a0
    22f8:	00078513          	mv	a0,a5
    22fc:	00070593          	mv	a1,a4
    2300:	e21ff06f          	j	2120 <__moddi3+0x10c>
    2304:	01000337          	lui	t1,0x1000
    2308:	01000813          	li	a6,16
    230c:	fa66e8e3          	bltu	a3,t1,22bc <__moddi3+0x2a8>
    2310:	01800813          	li	a6,24
    2314:	fa9ff06f          	j	22bc <__moddi3+0x2a8>
    2318:	01d65733          	srl	a4,a2,t4
    231c:	01c696b3          	sll	a3,a3,t3
    2320:	00d766b3          	or	a3,a4,a3
    2324:	01d5d7b3          	srl	a5,a1,t4
    2328:	01d55733          	srl	a4,a0,t4
    232c:	01c595b3          	sll	a1,a1,t3
    2330:	00b76733          	or	a4,a4,a1
    2334:	0106d593          	srli	a1,a3,0x10
    2338:	02b7f333          	remu	t1,a5,a1
    233c:	01069f13          	slli	t5,a3,0x10
    2340:	010f5f13          	srli	t5,t5,0x10
    2344:	01075813          	srli	a6,a4,0x10
    2348:	01c61633          	sll	a2,a2,t3
    234c:	01c51533          	sll	a0,a0,t3
    2350:	02b7d7b3          	divu	a5,a5,a1
    2354:	01031313          	slli	t1,t1,0x10
    2358:	01036833          	or	a6,t1,a6
    235c:	02ff0fb3          	mul	t6,t5,a5
    2360:	00078313          	mv	t1,a5
    2364:	01f87e63          	bleu	t6,a6,2380 <__moddi3+0x36c>
    2368:	00d80833          	add	a6,a6,a3
    236c:	fff78313          	addi	t1,a5,-1
    2370:	00d86863          	bltu	a6,a3,2380 <__moddi3+0x36c>
    2374:	01f87663          	bleu	t6,a6,2380 <__moddi3+0x36c>
    2378:	ffe78313          	addi	t1,a5,-2
    237c:	00d80833          	add	a6,a6,a3
    2380:	41f80833          	sub	a6,a6,t6
    2384:	02b87fb3          	remu	t6,a6,a1
    2388:	02b85833          	divu	a6,a6,a1
    238c:	010f9f93          	slli	t6,t6,0x10
    2390:	030f05b3          	mul	a1,t5,a6
    2394:	01071f13          	slli	t5,a4,0x10
    2398:	010f5f13          	srli	t5,t5,0x10
    239c:	01efef33          	or	t5,t6,t5
    23a0:	00080713          	mv	a4,a6
    23a4:	00bf7e63          	bleu	a1,t5,23c0 <__moddi3+0x3ac>
    23a8:	00df0f33          	add	t5,t5,a3
    23ac:	fff80713          	addi	a4,a6,-1 # ffff <__BSS_END__+0x9b7f>
    23b0:	00df6863          	bltu	t5,a3,23c0 <__moddi3+0x3ac>
    23b4:	00bf7663          	bleu	a1,t5,23c0 <__moddi3+0x3ac>
    23b8:	ffe80713          	addi	a4,a6,-2
    23bc:	00df0f33          	add	t5,t5,a3
    23c0:	01031313          	slli	t1,t1,0x10
    23c4:	00010fb7          	lui	t6,0x10
    23c8:	00e36333          	or	t1,t1,a4
    23cc:	ffff8793          	addi	a5,t6,-1 # ffff <__BSS_END__+0x9b7f>
    23d0:	01065813          	srli	a6,a2,0x10
    23d4:	40bf0f33          	sub	t5,t5,a1
    23d8:	00f375b3          	and	a1,t1,a5
    23dc:	01035313          	srli	t1,t1,0x10
    23e0:	00f677b3          	and	a5,a2,a5
    23e4:	02f58733          	mul	a4,a1,a5
    23e8:	02f307b3          	mul	a5,t1,a5
    23ec:	030585b3          	mul	a1,a1,a6
    23f0:	03030333          	mul	t1,t1,a6
    23f4:	00f585b3          	add	a1,a1,a5
    23f8:	01075813          	srli	a6,a4,0x10
    23fc:	00b80833          	add	a6,a6,a1
    2400:	00f87463          	bleu	a5,a6,2408 <__moddi3+0x3f4>
    2404:	01f30333          	add	t1,t1,t6
    2408:	000107b7          	lui	a5,0x10
    240c:	fff78793          	addi	a5,a5,-1 # ffff <__BSS_END__+0x9b7f>
    2410:	01085593          	srli	a1,a6,0x10
    2414:	00f87833          	and	a6,a6,a5
    2418:	01081813          	slli	a6,a6,0x10
    241c:	00f77733          	and	a4,a4,a5
    2420:	006585b3          	add	a1,a1,t1
    2424:	00e80733          	add	a4,a6,a4
    2428:	00bf6663          	bltu	t5,a1,2434 <__moddi3+0x420>
    242c:	00bf1e63          	bne	t5,a1,2448 <__moddi3+0x434>
    2430:	00e57c63          	bleu	a4,a0,2448 <__moddi3+0x434>
    2434:	40c70633          	sub	a2,a4,a2
    2438:	00c73733          	sltu	a4,a4,a2
    243c:	40d585b3          	sub	a1,a1,a3
    2440:	40e585b3          	sub	a1,a1,a4
    2444:	00060713          	mv	a4,a2
    2448:	40e50733          	sub	a4,a0,a4
    244c:	00e53533          	sltu	a0,a0,a4
    2450:	40bf05b3          	sub	a1,t5,a1
    2454:	40a585b3          	sub	a1,a1,a0
    2458:	01d597b3          	sll	a5,a1,t4
    245c:	01c75733          	srl	a4,a4,t3
    2460:	00e7e533          	or	a0,a5,a4
    2464:	01c5d5b3          	srl	a1,a1,t3
    2468:	cb9ff06f          	j	2120 <__moddi3+0x10c>
    246c:	0000                	unimp
	...

00002470 <__udivdi3>:
    2470:	00058793          	mv	a5,a1
    2474:	00060813          	mv	a6,a2
    2478:	00068893          	mv	a7,a3
    247c:	00050313          	mv	t1,a0
    2480:	28069663          	bnez	a3,270c <__udivdi3+0x29c>
    2484:	00003737          	lui	a4,0x3
    2488:	f1c70713          	addi	a4,a4,-228 # 2f1c <__clz_tab>
    248c:	0ec5f663          	bleu	a2,a1,2578 <__udivdi3+0x108>
    2490:	000106b7          	lui	a3,0x10
    2494:	0cd67863          	bleu	a3,a2,2564 <__udivdi3+0xf4>
    2498:	0ff00693          	li	a3,255
    249c:	00c6b6b3          	sltu	a3,a3,a2
    24a0:	00369693          	slli	a3,a3,0x3
    24a4:	00d658b3          	srl	a7,a2,a3
    24a8:	01170733          	add	a4,a4,a7
    24ac:	00074703          	lbu	a4,0(a4)
    24b0:	00d706b3          	add	a3,a4,a3
    24b4:	02000713          	li	a4,32
    24b8:	40d70733          	sub	a4,a4,a3
    24bc:	00070c63          	beqz	a4,24d4 <__udivdi3+0x64>
    24c0:	00e797b3          	sll	a5,a5,a4
    24c4:	00d556b3          	srl	a3,a0,a3
    24c8:	00e61833          	sll	a6,a2,a4
    24cc:	00f6e5b3          	or	a1,a3,a5
    24d0:	00e51333          	sll	t1,a0,a4
    24d4:	01085513          	srli	a0,a6,0x10
    24d8:	02a5d7b3          	divu	a5,a1,a0
    24dc:	01081613          	slli	a2,a6,0x10
    24e0:	01065613          	srli	a2,a2,0x10
    24e4:	01035693          	srli	a3,t1,0x10
    24e8:	02a5f733          	remu	a4,a1,a0
    24ec:	02f605b3          	mul	a1,a2,a5
    24f0:	01071713          	slli	a4,a4,0x10
    24f4:	00d766b3          	or	a3,a4,a3
    24f8:	00078713          	mv	a4,a5
    24fc:	00b6fe63          	bleu	a1,a3,2518 <__udivdi3+0xa8>
    2500:	010686b3          	add	a3,a3,a6
    2504:	fff78713          	addi	a4,a5,-1
    2508:	0106e863          	bltu	a3,a6,2518 <__udivdi3+0xa8>
    250c:	00b6f663          	bleu	a1,a3,2518 <__udivdi3+0xa8>
    2510:	ffe78713          	addi	a4,a5,-2
    2514:	010686b3          	add	a3,a3,a6
    2518:	40b686b3          	sub	a3,a3,a1
    251c:	02a6f7b3          	remu	a5,a3,a0
    2520:	01031313          	slli	t1,t1,0x10
    2524:	01035313          	srli	t1,t1,0x10
    2528:	02a6d6b3          	divu	a3,a3,a0
    252c:	01079793          	slli	a5,a5,0x10
    2530:	0067e333          	or	t1,a5,t1
    2534:	02d605b3          	mul	a1,a2,a3
    2538:	00068513          	mv	a0,a3
    253c:	00b37c63          	bleu	a1,t1,2554 <__udivdi3+0xe4>
    2540:	00680333          	add	t1,a6,t1
    2544:	fff68513          	addi	a0,a3,-1 # ffff <__BSS_END__+0x9b7f>
    2548:	01036663          	bltu	t1,a6,2554 <__udivdi3+0xe4>
    254c:	00b37463          	bleu	a1,t1,2554 <__udivdi3+0xe4>
    2550:	ffe68513          	addi	a0,a3,-2
    2554:	01071713          	slli	a4,a4,0x10
    2558:	00a76733          	or	a4,a4,a0
    255c:	00000593          	li	a1,0
    2560:	0e40006f          	j	2644 <__udivdi3+0x1d4>
    2564:	010008b7          	lui	a7,0x1000
    2568:	01000693          	li	a3,16
    256c:	f3166ce3          	bltu	a2,a7,24a4 <__udivdi3+0x34>
    2570:	01800693          	li	a3,24
    2574:	f31ff06f          	j	24a4 <__udivdi3+0x34>
    2578:	00061663          	bnez	a2,2584 <__udivdi3+0x114>
    257c:	00100693          	li	a3,1
    2580:	02c6d833          	divu	a6,a3,a2
    2584:	000106b7          	lui	a3,0x10
    2588:	0cd87263          	bleu	a3,a6,264c <__udivdi3+0x1dc>
    258c:	0ff00693          	li	a3,255
    2590:	0106f463          	bleu	a6,a3,2598 <__udivdi3+0x128>
    2594:	00800893          	li	a7,8
    2598:	011856b3          	srl	a3,a6,a7
    259c:	00d70733          	add	a4,a4,a3
    25a0:	00074683          	lbu	a3,0(a4)
    25a4:	02000713          	li	a4,32
    25a8:	011686b3          	add	a3,a3,a7
    25ac:	40d70733          	sub	a4,a4,a3
    25b0:	0a071863          	bnez	a4,2660 <__udivdi3+0x1f0>
    25b4:	410787b3          	sub	a5,a5,a6
    25b8:	00100593          	li	a1,1
    25bc:	01085613          	srli	a2,a6,0x10
    25c0:	01081893          	slli	a7,a6,0x10
    25c4:	0108d893          	srli	a7,a7,0x10
    25c8:	01035693          	srli	a3,t1,0x10
    25cc:	02c7f733          	remu	a4,a5,a2
    25d0:	02c7d7b3          	divu	a5,a5,a2
    25d4:	01071713          	slli	a4,a4,0x10
    25d8:	00d766b3          	or	a3,a4,a3
    25dc:	02f88533          	mul	a0,a7,a5
    25e0:	00078713          	mv	a4,a5
    25e4:	00a6fe63          	bleu	a0,a3,2600 <__udivdi3+0x190>
    25e8:	010686b3          	add	a3,a3,a6
    25ec:	fff78713          	addi	a4,a5,-1
    25f0:	0106e863          	bltu	a3,a6,2600 <__udivdi3+0x190>
    25f4:	00a6f663          	bleu	a0,a3,2600 <__udivdi3+0x190>
    25f8:	ffe78713          	addi	a4,a5,-2
    25fc:	010686b3          	add	a3,a3,a6
    2600:	40a686b3          	sub	a3,a3,a0
    2604:	02c6f7b3          	remu	a5,a3,a2
    2608:	01031313          	slli	t1,t1,0x10
    260c:	01035313          	srli	t1,t1,0x10
    2610:	02c6d6b3          	divu	a3,a3,a2
    2614:	01079793          	slli	a5,a5,0x10
    2618:	0067e333          	or	t1,a5,t1
    261c:	02d888b3          	mul	a7,a7,a3
    2620:	00068513          	mv	a0,a3
    2624:	01137c63          	bleu	a7,t1,263c <__udivdi3+0x1cc>
    2628:	00680333          	add	t1,a6,t1
    262c:	fff68513          	addi	a0,a3,-1 # ffff <__BSS_END__+0x9b7f>
    2630:	01036663          	bltu	t1,a6,263c <__udivdi3+0x1cc>
    2634:	01137463          	bleu	a7,t1,263c <__udivdi3+0x1cc>
    2638:	ffe68513          	addi	a0,a3,-2
    263c:	01071713          	slli	a4,a4,0x10
    2640:	00a76733          	or	a4,a4,a0
    2644:	00070513          	mv	a0,a4
    2648:	00008067          	ret
    264c:	010006b7          	lui	a3,0x1000
    2650:	01000893          	li	a7,16
    2654:	f4d862e3          	bltu	a6,a3,2598 <__udivdi3+0x128>
    2658:	01800893          	li	a7,24
    265c:	f3dff06f          	j	2598 <__udivdi3+0x128>
    2660:	00e81833          	sll	a6,a6,a4
    2664:	00d7d5b3          	srl	a1,a5,a3
    2668:	00e51333          	sll	t1,a0,a4
    266c:	00d556b3          	srl	a3,a0,a3
    2670:	01085513          	srli	a0,a6,0x10
    2674:	00e797b3          	sll	a5,a5,a4
    2678:	02a5f733          	remu	a4,a1,a0
    267c:	00f6e8b3          	or	a7,a3,a5
    2680:	01081793          	slli	a5,a6,0x10
    2684:	0107d793          	srli	a5,a5,0x10
    2688:	0108d613          	srli	a2,a7,0x10
    268c:	02a5d5b3          	divu	a1,a1,a0
    2690:	01071713          	slli	a4,a4,0x10
    2694:	00c76733          	or	a4,a4,a2
    2698:	02b786b3          	mul	a3,a5,a1
    269c:	00058613          	mv	a2,a1
    26a0:	00d77e63          	bleu	a3,a4,26bc <__udivdi3+0x24c>
    26a4:	01070733          	add	a4,a4,a6
    26a8:	fff58613          	addi	a2,a1,-1
    26ac:	01076863          	bltu	a4,a6,26bc <__udivdi3+0x24c>
    26b0:	00d77663          	bleu	a3,a4,26bc <__udivdi3+0x24c>
    26b4:	ffe58613          	addi	a2,a1,-2
    26b8:	01070733          	add	a4,a4,a6
    26bc:	40d706b3          	sub	a3,a4,a3
    26c0:	02a6f733          	remu	a4,a3,a0
    26c4:	01089893          	slli	a7,a7,0x10
    26c8:	0108d893          	srli	a7,a7,0x10
    26cc:	02a6d6b3          	divu	a3,a3,a0
    26d0:	01071713          	slli	a4,a4,0x10
    26d4:	02d785b3          	mul	a1,a5,a3
    26d8:	011767b3          	or	a5,a4,a7
    26dc:	00068713          	mv	a4,a3
    26e0:	00b7fe63          	bleu	a1,a5,26fc <__udivdi3+0x28c>
    26e4:	010787b3          	add	a5,a5,a6
    26e8:	fff68713          	addi	a4,a3,-1 # ffffff <__C_STACK_TOP__+0xfeffff>
    26ec:	0107e863          	bltu	a5,a6,26fc <__udivdi3+0x28c>
    26f0:	00b7f663          	bleu	a1,a5,26fc <__udivdi3+0x28c>
    26f4:	ffe68713          	addi	a4,a3,-2
    26f8:	010787b3          	add	a5,a5,a6
    26fc:	40b787b3          	sub	a5,a5,a1
    2700:	01061593          	slli	a1,a2,0x10
    2704:	00e5e5b3          	or	a1,a1,a4
    2708:	eb5ff06f          	j	25bc <__udivdi3+0x14c>
    270c:	18d5e663          	bltu	a1,a3,2898 <__udivdi3+0x428>
    2710:	00010737          	lui	a4,0x10
    2714:	04e6f463          	bleu	a4,a3,275c <__udivdi3+0x2ec>
    2718:	0ff00813          	li	a6,255
    271c:	00d83733          	sltu	a4,a6,a3
    2720:	00371713          	slli	a4,a4,0x3
    2724:	00003837          	lui	a6,0x3
    2728:	f1c80813          	addi	a6,a6,-228 # 2f1c <__clz_tab>
    272c:	00e6d5b3          	srl	a1,a3,a4
    2730:	010585b3          	add	a1,a1,a6
    2734:	0005c803          	lbu	a6,0(a1)
    2738:	02000593          	li	a1,32
    273c:	00e80833          	add	a6,a6,a4
    2740:	410585b3          	sub	a1,a1,a6
    2744:	02059663          	bnez	a1,2770 <__udivdi3+0x300>
    2748:	00100713          	li	a4,1
    274c:	eef6ece3          	bltu	a3,a5,2644 <__udivdi3+0x1d4>
    2750:	00c53533          	sltu	a0,a0,a2
    2754:	00154713          	xori	a4,a0,1
    2758:	eedff06f          	j	2644 <__udivdi3+0x1d4>
    275c:	010005b7          	lui	a1,0x1000
    2760:	01000713          	li	a4,16
    2764:	fcb6e0e3          	bltu	a3,a1,2724 <__udivdi3+0x2b4>
    2768:	01800713          	li	a4,24
    276c:	fb9ff06f          	j	2724 <__udivdi3+0x2b4>
    2770:	01065733          	srl	a4,a2,a6
    2774:	00b696b3          	sll	a3,a3,a1
    2778:	00d766b3          	or	a3,a4,a3
    277c:	0106de93          	srli	t4,a3,0x10
    2780:	0107d733          	srl	a4,a5,a6
    2784:	03d778b3          	remu	a7,a4,t4
    2788:	00b797b3          	sll	a5,a5,a1
    278c:	01055833          	srl	a6,a0,a6
    2790:	00f86333          	or	t1,a6,a5
    2794:	01069793          	slli	a5,a3,0x10
    2798:	0107d793          	srli	a5,a5,0x10
    279c:	01035813          	srli	a6,t1,0x10
    27a0:	00b61633          	sll	a2,a2,a1
    27a4:	03d75733          	divu	a4,a4,t4
    27a8:	01089893          	slli	a7,a7,0x10
    27ac:	0108e833          	or	a6,a7,a6
    27b0:	02e78f33          	mul	t5,a5,a4
    27b4:	00070e13          	mv	t3,a4
    27b8:	01e87e63          	bleu	t5,a6,27d4 <__udivdi3+0x364>
    27bc:	00d80833          	add	a6,a6,a3
    27c0:	fff70e13          	addi	t3,a4,-1 # ffff <__BSS_END__+0x9b7f>
    27c4:	00d86863          	bltu	a6,a3,27d4 <__udivdi3+0x364>
    27c8:	01e87663          	bleu	t5,a6,27d4 <__udivdi3+0x364>
    27cc:	ffe70e13          	addi	t3,a4,-2
    27d0:	00d80833          	add	a6,a6,a3
    27d4:	41e80833          	sub	a6,a6,t5
    27d8:	03d878b3          	remu	a7,a6,t4
    27dc:	03d85833          	divu	a6,a6,t4
    27e0:	01089893          	slli	a7,a7,0x10
    27e4:	03078eb3          	mul	t4,a5,a6
    27e8:	01031793          	slli	a5,t1,0x10
    27ec:	0107d793          	srli	a5,a5,0x10
    27f0:	00f8e7b3          	or	a5,a7,a5
    27f4:	00080713          	mv	a4,a6
    27f8:	01d7fe63          	bleu	t4,a5,2814 <__udivdi3+0x3a4>
    27fc:	00d787b3          	add	a5,a5,a3
    2800:	fff80713          	addi	a4,a6,-1
    2804:	00d7e863          	bltu	a5,a3,2814 <__udivdi3+0x3a4>
    2808:	01d7f663          	bleu	t4,a5,2814 <__udivdi3+0x3a4>
    280c:	ffe80713          	addi	a4,a6,-2
    2810:	00d787b3          	add	a5,a5,a3
    2814:	010e1e13          	slli	t3,t3,0x10
    2818:	41d787b3          	sub	a5,a5,t4
    281c:	00010eb7          	lui	t4,0x10
    2820:	00ee6733          	or	a4,t3,a4
    2824:	fffe8813          	addi	a6,t4,-1 # ffff <__BSS_END__+0x9b7f>
    2828:	01077333          	and	t1,a4,a6
    282c:	01075893          	srli	a7,a4,0x10
    2830:	01067833          	and	a6,a2,a6
    2834:	01065613          	srli	a2,a2,0x10
    2838:	03030e33          	mul	t3,t1,a6
    283c:	03088833          	mul	a6,a7,a6
    2840:	010e5693          	srli	a3,t3,0x10
    2844:	02c30333          	mul	t1,t1,a2
    2848:	01030333          	add	t1,t1,a6
    284c:	006686b3          	add	a3,a3,t1
    2850:	02c888b3          	mul	a7,a7,a2
    2854:	0106f463          	bleu	a6,a3,285c <__udivdi3+0x3ec>
    2858:	01d888b3          	add	a7,a7,t4
    285c:	0106d613          	srli	a2,a3,0x10
    2860:	011608b3          	add	a7,a2,a7
    2864:	0317e663          	bltu	a5,a7,2890 <__udivdi3+0x420>
    2868:	cf179ae3          	bne	a5,a7,255c <__udivdi3+0xec>
    286c:	000107b7          	lui	a5,0x10
    2870:	fff78793          	addi	a5,a5,-1 # ffff <__BSS_END__+0x9b7f>
    2874:	00f6f6b3          	and	a3,a3,a5
    2878:	01069693          	slli	a3,a3,0x10
    287c:	00fe7e33          	and	t3,t3,a5
    2880:	00b51533          	sll	a0,a0,a1
    2884:	01c686b3          	add	a3,a3,t3
    2888:	00000593          	li	a1,0
    288c:	dad57ce3          	bleu	a3,a0,2644 <__udivdi3+0x1d4>
    2890:	fff70713          	addi	a4,a4,-1
    2894:	cc9ff06f          	j	255c <__udivdi3+0xec>
    2898:	00000593          	li	a1,0
    289c:	00000713          	li	a4,0
    28a0:	da5ff06f          	j	2644 <__udivdi3+0x1d4>
    28a4:	0000                	unimp
	...

000028a8 <__umoddi3>:
    28a8:	00060893          	mv	a7,a2
    28ac:	00068713          	mv	a4,a3
    28b0:	00050793          	mv	a5,a0
    28b4:	00058813          	mv	a6,a1
    28b8:	22069c63          	bnez	a3,2af0 <__umoddi3+0x248>
    28bc:	000036b7          	lui	a3,0x3
    28c0:	f1c68693          	addi	a3,a3,-228 # 2f1c <__clz_tab>
    28c4:	0cc5fc63          	bleu	a2,a1,299c <__umoddi3+0xf4>
    28c8:	00010337          	lui	t1,0x10
    28cc:	0a667e63          	bleu	t1,a2,2988 <__umoddi3+0xe0>
    28d0:	0ff00313          	li	t1,255
    28d4:	00c37463          	bleu	a2,t1,28dc <__umoddi3+0x34>
    28d8:	00800713          	li	a4,8
    28dc:	00e65333          	srl	t1,a2,a4
    28e0:	006686b3          	add	a3,a3,t1
    28e4:	0006ce03          	lbu	t3,0(a3)
    28e8:	02000313          	li	t1,32
    28ec:	00ee0e33          	add	t3,t3,a4
    28f0:	41c30333          	sub	t1,t1,t3
    28f4:	00030c63          	beqz	t1,290c <__umoddi3+0x64>
    28f8:	006595b3          	sll	a1,a1,t1
    28fc:	01c55e33          	srl	t3,a0,t3
    2900:	006618b3          	sll	a7,a2,t1
    2904:	00be6833          	or	a6,t3,a1
    2908:	006517b3          	sll	a5,a0,t1
    290c:	0108d613          	srli	a2,a7,0x10
    2910:	02c87733          	remu	a4,a6,a2
    2914:	01089513          	slli	a0,a7,0x10
    2918:	01055513          	srli	a0,a0,0x10
    291c:	0107d693          	srli	a3,a5,0x10
    2920:	02c85833          	divu	a6,a6,a2
    2924:	01071713          	slli	a4,a4,0x10
    2928:	00d766b3          	or	a3,a4,a3
    292c:	03050833          	mul	a6,a0,a6
    2930:	0106fa63          	bleu	a6,a3,2944 <__umoddi3+0x9c>
    2934:	011686b3          	add	a3,a3,a7
    2938:	0116e663          	bltu	a3,a7,2944 <__umoddi3+0x9c>
    293c:	0106f463          	bleu	a6,a3,2944 <__umoddi3+0x9c>
    2940:	011686b3          	add	a3,a3,a7
    2944:	410686b3          	sub	a3,a3,a6
    2948:	02c6f733          	remu	a4,a3,a2
    294c:	01079793          	slli	a5,a5,0x10
    2950:	0107d793          	srli	a5,a5,0x10
    2954:	02c6d6b3          	divu	a3,a3,a2
    2958:	02d506b3          	mul	a3,a0,a3
    295c:	01071513          	slli	a0,a4,0x10
    2960:	00f567b3          	or	a5,a0,a5
    2964:	00d7fa63          	bleu	a3,a5,2978 <__umoddi3+0xd0>
    2968:	011787b3          	add	a5,a5,a7
    296c:	0117e663          	bltu	a5,a7,2978 <__umoddi3+0xd0>
    2970:	00d7f463          	bleu	a3,a5,2978 <__umoddi3+0xd0>
    2974:	011787b3          	add	a5,a5,a7
    2978:	40d787b3          	sub	a5,a5,a3
    297c:	0067d533          	srl	a0,a5,t1
    2980:	00000593          	li	a1,0
    2984:	00008067          	ret
    2988:	01000337          	lui	t1,0x1000
    298c:	01000713          	li	a4,16
    2990:	f46666e3          	bltu	a2,t1,28dc <__umoddi3+0x34>
    2994:	01800713          	li	a4,24
    2998:	f45ff06f          	j	28dc <__umoddi3+0x34>
    299c:	00061663          	bnez	a2,29a8 <__umoddi3+0x100>
    29a0:	00100613          	li	a2,1
    29a4:	031658b3          	divu	a7,a2,a7
    29a8:	00010637          	lui	a2,0x10
    29ac:	0ac8f263          	bleu	a2,a7,2a50 <__umoddi3+0x1a8>
    29b0:	0ff00613          	li	a2,255
    29b4:	01167463          	bleu	a7,a2,29bc <__umoddi3+0x114>
    29b8:	00800713          	li	a4,8
    29bc:	00e8d633          	srl	a2,a7,a4
    29c0:	00c686b3          	add	a3,a3,a2
    29c4:	0006ce03          	lbu	t3,0(a3)
    29c8:	02000313          	li	t1,32
    29cc:	00ee0e33          	add	t3,t3,a4
    29d0:	41c30333          	sub	t1,t1,t3
    29d4:	08031863          	bnez	t1,2a64 <__umoddi3+0x1bc>
    29d8:	411585b3          	sub	a1,a1,a7
    29dc:	0108d713          	srli	a4,a7,0x10
    29e0:	01089513          	slli	a0,a7,0x10
    29e4:	01055513          	srli	a0,a0,0x10
    29e8:	0107d613          	srli	a2,a5,0x10
    29ec:	02e5f6b3          	remu	a3,a1,a4
    29f0:	02e5d5b3          	divu	a1,a1,a4
    29f4:	01069693          	slli	a3,a3,0x10
    29f8:	00c6e6b3          	or	a3,a3,a2
    29fc:	02b505b3          	mul	a1,a0,a1
    2a00:	00b6fa63          	bleu	a1,a3,2a14 <__umoddi3+0x16c>
    2a04:	011686b3          	add	a3,a3,a7
    2a08:	0116e663          	bltu	a3,a7,2a14 <__umoddi3+0x16c>
    2a0c:	00b6f463          	bleu	a1,a3,2a14 <__umoddi3+0x16c>
    2a10:	011686b3          	add	a3,a3,a7
    2a14:	40b685b3          	sub	a1,a3,a1
    2a18:	02e5f6b3          	remu	a3,a1,a4
    2a1c:	01079793          	slli	a5,a5,0x10
    2a20:	0107d793          	srli	a5,a5,0x10
    2a24:	02e5d5b3          	divu	a1,a1,a4
    2a28:	02b505b3          	mul	a1,a0,a1
    2a2c:	01069513          	slli	a0,a3,0x10
    2a30:	00f567b3          	or	a5,a0,a5
    2a34:	00b7fa63          	bleu	a1,a5,2a48 <__umoddi3+0x1a0>
    2a38:	011787b3          	add	a5,a5,a7
    2a3c:	0117e663          	bltu	a5,a7,2a48 <__umoddi3+0x1a0>
    2a40:	00b7f463          	bleu	a1,a5,2a48 <__umoddi3+0x1a0>
    2a44:	011787b3          	add	a5,a5,a7
    2a48:	40b787b3          	sub	a5,a5,a1
    2a4c:	f31ff06f          	j	297c <__umoddi3+0xd4>
    2a50:	01000637          	lui	a2,0x1000
    2a54:	01000713          	li	a4,16
    2a58:	f6c8e2e3          	bltu	a7,a2,29bc <__umoddi3+0x114>
    2a5c:	01800713          	li	a4,24
    2a60:	f5dff06f          	j	29bc <__umoddi3+0x114>
    2a64:	006898b3          	sll	a7,a7,t1
    2a68:	01c5d733          	srl	a4,a1,t3
    2a6c:	006517b3          	sll	a5,a0,t1
    2a70:	01c55e33          	srl	t3,a0,t3
    2a74:	0108d513          	srli	a0,a7,0x10
    2a78:	02a776b3          	remu	a3,a4,a0
    2a7c:	006595b3          	sll	a1,a1,t1
    2a80:	00be6e33          	or	t3,t3,a1
    2a84:	01089593          	slli	a1,a7,0x10
    2a88:	0105d593          	srli	a1,a1,0x10
    2a8c:	010e5613          	srli	a2,t3,0x10
    2a90:	02a75733          	divu	a4,a4,a0
    2a94:	01069693          	slli	a3,a3,0x10
    2a98:	00c6e6b3          	or	a3,a3,a2
    2a9c:	02e58733          	mul	a4,a1,a4
    2aa0:	00e6fa63          	bleu	a4,a3,2ab4 <__umoddi3+0x20c>
    2aa4:	011686b3          	add	a3,a3,a7
    2aa8:	0116e663          	bltu	a3,a7,2ab4 <__umoddi3+0x20c>
    2aac:	00e6f463          	bleu	a4,a3,2ab4 <__umoddi3+0x20c>
    2ab0:	011686b3          	add	a3,a3,a7
    2ab4:	40e68633          	sub	a2,a3,a4
    2ab8:	02a676b3          	remu	a3,a2,a0
    2abc:	010e1e13          	slli	t3,t3,0x10
    2ac0:	010e5e13          	srli	t3,t3,0x10
    2ac4:	02a65633          	divu	a2,a2,a0
    2ac8:	01069693          	slli	a3,a3,0x10
    2acc:	02c58633          	mul	a2,a1,a2
    2ad0:	01c6e5b3          	or	a1,a3,t3
    2ad4:	00c5fa63          	bleu	a2,a1,2ae8 <__umoddi3+0x240>
    2ad8:	011585b3          	add	a1,a1,a7
    2adc:	0115e663          	bltu	a1,a7,2ae8 <__umoddi3+0x240>
    2ae0:	00c5f463          	bleu	a2,a1,2ae8 <__umoddi3+0x240>
    2ae4:	011585b3          	add	a1,a1,a7
    2ae8:	40c585b3          	sub	a1,a1,a2
    2aec:	ef1ff06f          	j	29dc <__umoddi3+0x134>
    2af0:	e8d5eae3          	bltu	a1,a3,2984 <__umoddi3+0xdc>
    2af4:	00010737          	lui	a4,0x10
    2af8:	04e6fc63          	bleu	a4,a3,2b50 <__umoddi3+0x2a8>
    2afc:	0ff00e93          	li	t4,255
    2b00:	00deb733          	sltu	a4,t4,a3
    2b04:	00371713          	slli	a4,a4,0x3
    2b08:	00003337          	lui	t1,0x3
    2b0c:	00e6d8b3          	srl	a7,a3,a4
    2b10:	f1c30313          	addi	t1,t1,-228 # 2f1c <__clz_tab>
    2b14:	006888b3          	add	a7,a7,t1
    2b18:	0008ce83          	lbu	t4,0(a7) # 1000000 <__C_STACK_TOP__+0xff0000>
    2b1c:	02000e13          	li	t3,32
    2b20:	00ee8eb3          	add	t4,t4,a4
    2b24:	41de0e33          	sub	t3,t3,t4
    2b28:	020e1e63          	bnez	t3,2b64 <__umoddi3+0x2bc>
    2b2c:	00b6e463          	bltu	a3,a1,2b34 <__umoddi3+0x28c>
    2b30:	00c56a63          	bltu	a0,a2,2b44 <__umoddi3+0x29c>
    2b34:	40c507b3          	sub	a5,a0,a2
    2b38:	40d585b3          	sub	a1,a1,a3
    2b3c:	00f53533          	sltu	a0,a0,a5
    2b40:	40a58833          	sub	a6,a1,a0
    2b44:	00078513          	mv	a0,a5
    2b48:	00080593          	mv	a1,a6
    2b4c:	e39ff06f          	j	2984 <__umoddi3+0xdc>
    2b50:	010008b7          	lui	a7,0x1000
    2b54:	01000713          	li	a4,16
    2b58:	fb16e8e3          	bltu	a3,a7,2b08 <__umoddi3+0x260>
    2b5c:	01800713          	li	a4,24
    2b60:	fa9ff06f          	j	2b08 <__umoddi3+0x260>
    2b64:	01d65733          	srl	a4,a2,t4
    2b68:	01c696b3          	sll	a3,a3,t3
    2b6c:	00d766b3          	or	a3,a4,a3
    2b70:	01d557b3          	srl	a5,a0,t4
    2b74:	01d5d733          	srl	a4,a1,t4
    2b78:	01c595b3          	sll	a1,a1,t3
    2b7c:	00b7e7b3          	or	a5,a5,a1
    2b80:	0106d593          	srli	a1,a3,0x10
    2b84:	02b77333          	remu	t1,a4,a1
    2b88:	01069f13          	slli	t5,a3,0x10
    2b8c:	010f5f13          	srli	t5,t5,0x10
    2b90:	0107d893          	srli	a7,a5,0x10
    2b94:	01c61633          	sll	a2,a2,t3
    2b98:	01c51533          	sll	a0,a0,t3
    2b9c:	02b75733          	divu	a4,a4,a1
    2ba0:	01031313          	slli	t1,t1,0x10
    2ba4:	011368b3          	or	a7,t1,a7
    2ba8:	02ef0833          	mul	a6,t5,a4
    2bac:	00070313          	mv	t1,a4
    2bb0:	0108fe63          	bleu	a6,a7,2bcc <__umoddi3+0x324>
    2bb4:	00d888b3          	add	a7,a7,a3
    2bb8:	fff70313          	addi	t1,a4,-1 # ffff <__BSS_END__+0x9b7f>
    2bbc:	00d8e863          	bltu	a7,a3,2bcc <__umoddi3+0x324>
    2bc0:	0108f663          	bleu	a6,a7,2bcc <__umoddi3+0x324>
    2bc4:	ffe70313          	addi	t1,a4,-2
    2bc8:	00d888b3          	add	a7,a7,a3
    2bcc:	410888b3          	sub	a7,a7,a6
    2bd0:	02b8ffb3          	remu	t6,a7,a1
    2bd4:	02b8d8b3          	divu	a7,a7,a1
    2bd8:	010f9f93          	slli	t6,t6,0x10
    2bdc:	031f05b3          	mul	a1,t5,a7
    2be0:	01079f13          	slli	t5,a5,0x10
    2be4:	010f5f13          	srli	t5,t5,0x10
    2be8:	01efef33          	or	t5,t6,t5
    2bec:	00088713          	mv	a4,a7
    2bf0:	00bf7e63          	bleu	a1,t5,2c0c <__umoddi3+0x364>
    2bf4:	00df0f33          	add	t5,t5,a3
    2bf8:	fff88713          	addi	a4,a7,-1 # ffffff <__C_STACK_TOP__+0xfeffff>
    2bfc:	00df6863          	bltu	t5,a3,2c0c <__umoddi3+0x364>
    2c00:	00bf7663          	bleu	a1,t5,2c0c <__umoddi3+0x364>
    2c04:	ffe88713          	addi	a4,a7,-2
    2c08:	00df0f33          	add	t5,t5,a3
    2c0c:	01031313          	slli	t1,t1,0x10
    2c10:	000108b7          	lui	a7,0x10
    2c14:	00e36333          	or	t1,t1,a4
    2c18:	fff88793          	addi	a5,a7,-1 # ffff <__BSS_END__+0x9b7f>
    2c1c:	01065813          	srli	a6,a2,0x10
    2c20:	40bf0f33          	sub	t5,t5,a1
    2c24:	00f375b3          	and	a1,t1,a5
    2c28:	01035313          	srli	t1,t1,0x10
    2c2c:	00f677b3          	and	a5,a2,a5
    2c30:	02f58733          	mul	a4,a1,a5
    2c34:	02f307b3          	mul	a5,t1,a5
    2c38:	030585b3          	mul	a1,a1,a6
    2c3c:	03030333          	mul	t1,t1,a6
    2c40:	00f585b3          	add	a1,a1,a5
    2c44:	01075813          	srli	a6,a4,0x10
    2c48:	00b80833          	add	a6,a6,a1
    2c4c:	00f87463          	bleu	a5,a6,2c54 <__umoddi3+0x3ac>
    2c50:	01130333          	add	t1,t1,a7
    2c54:	000107b7          	lui	a5,0x10
    2c58:	fff78793          	addi	a5,a5,-1 # ffff <__BSS_END__+0x9b7f>
    2c5c:	01085593          	srli	a1,a6,0x10
    2c60:	00f87833          	and	a6,a6,a5
    2c64:	01081813          	slli	a6,a6,0x10
    2c68:	00f77733          	and	a4,a4,a5
    2c6c:	006585b3          	add	a1,a1,t1
    2c70:	00e80733          	add	a4,a6,a4
    2c74:	00bf6663          	bltu	t5,a1,2c80 <__umoddi3+0x3d8>
    2c78:	00bf1e63          	bne	t5,a1,2c94 <__umoddi3+0x3ec>
    2c7c:	00e57c63          	bleu	a4,a0,2c94 <__umoddi3+0x3ec>
    2c80:	40c70633          	sub	a2,a4,a2
    2c84:	00c73733          	sltu	a4,a4,a2
    2c88:	40d585b3          	sub	a1,a1,a3
    2c8c:	40e585b3          	sub	a1,a1,a4
    2c90:	00060713          	mv	a4,a2
    2c94:	40e50733          	sub	a4,a0,a4
    2c98:	00e53533          	sltu	a0,a0,a4
    2c9c:	40bf05b3          	sub	a1,t5,a1
    2ca0:	40a585b3          	sub	a1,a1,a0
    2ca4:	01d597b3          	sll	a5,a1,t4
    2ca8:	01c75733          	srl	a4,a4,t3
    2cac:	00e7e533          	or	a0,a5,a4
    2cb0:	01c5d5b3          	srl	a1,a1,t3
    2cb4:	cd1ff06f          	j	2984 <__umoddi3+0xdc>
	...
