
/media/sf_virtualbox_shared/scr1_opensource/build/jalr.elf:     file format elf32-littleriscv


Disassembly of section .text.init:

00000000 <SIM_EXIT-0xf4>:
	...

000000f4 <SIM_EXIT>:
  f4:	00000013          	nop

000000f8 <SIM_STOP>:
  f8:	0000006f          	j	f8 <SIM_STOP>
  fc:	ffff                	0xffff
  fe:	ffff                	0xffff
	...

000001c0 <trap_vector>:
 1c0:	34202f73          	csrr	t5,mcause
 1c4:	4fa1                	li	t6,8
 1c6:	03ff0563          	beq	t5,t6,1f0 <_report>
 1ca:	4fa5                	li	t6,9
 1cc:	03ff0263          	beq	t5,t6,1f0 <_report>
 1d0:	4fad                	li	t6,11
 1d2:	01ff0f63          	beq	t5,t6,1f0 <_report>
 1d6:	00000f17          	auipc	t5,0x0
 1da:	e2af0f13          	addi	t5,t5,-470 # 0 <CL_SIZE-0x20>
 1de:	000f0363          	beqz	t5,1e4 <trap_vector+0x24>
 1e2:	8f02                	jr	t5
 1e4:	34202f73          	csrr	t5,mcause
 1e8:	000f5363          	bgez	t5,1ee <handle_exception>
 1ec:	a009                	j	1ee <handle_exception>

000001ee <handle_exception>:
 1ee:	4505                	li	a0,1

000001f0 <_report>:
 1f0:	1900006f          	j	380 <sc_exit>
 1f4:	00000013          	nop
 1f8:	00000013          	nop
 1fc:	00000013          	nop

00000200 <_start>:
 200:	f1402573          	csrr	a0,mhartid
 204:	e101                	bnez	a0,204 <_start+0x4>
 206:	4e01                	li	t3,0
 208:	00000297          	auipc	t0,0x0
 20c:	fb828293          	addi	t0,t0,-72 # 1c0 <trap_vector>
 210:	30529073          	csrw	mtvec,t0
 214:	4505                	li	a0,1
 216:	057e                	slli	a0,a0,0x1f
 218:	00054863          	bltz	a0,228 <_start+0x28>
 21c:	0ff0000f          	fence
 220:	85f2                	mv	a1,t3
 222:	4501                	li	a0,0
 224:	00000073          	ecall
 228:	00000297          	auipc	t0,0x0
 22c:	dd828293          	addi	t0,t0,-552 # 0 <CL_SIZE-0x20>
 230:	00028e63          	beqz	t0,24c <_start+0x4c>
 234:	10529073          	csrw	stvec,t0
 238:	0000b2b7          	lui	t0,0xb
 23c:	10928293          	addi	t0,t0,265 # b109 <_gp+0xa501>
 240:	30229073          	csrw	medeleg,t0
 244:	30202373          	csrr	t1,medeleg
 248:	fa6293e3          	bne	t0,t1,1ee <handle_exception>
 24c:	30005073          	csrwi	mstatus,0
 250:	00000297          	auipc	t0,0x0
 254:	05028293          	addi	t0,t0,80 # 2a0 <_run_test>
 258:	34129073          	csrw	mepc,t0
 25c:	f1402573          	csrr	a0,mhartid
 260:	30200073          	mret
	...

Disassembly of section .text:

000002a0 <_run_test>:
 2a0:	4e09                	li	t3,2
 2a2:	4281                	li	t0,0
 2a4:	00000317          	auipc	t1,0x0
 2a8:	00e30313          	addi	t1,t1,14 # 2b2 <target_2>
 2ac:	000302e7          	jalr	t0,t1

000002b0 <linkaddr_2>:
 2b0:	a045                	j	350 <fail>

000002b2 <target_2>:
 2b2:	00000317          	auipc	t1,0x0
 2b6:	ffe30313          	addi	t1,t1,-2 # 2b0 <linkaddr_2>
 2ba:	08629b63          	bne	t0,t1,350 <fail>

000002be <test_4>:
 2be:	4e11                	li	t3,4
 2c0:	4201                	li	tp,0
 2c2:	00000317          	auipc	t1,0x0
 2c6:	01030313          	addi	t1,t1,16 # 2d2 <test_4+0x14>
 2ca:	000309e7          	jalr	s3,t1
 2ce:	09c01163          	bne	zero,t3,350 <fail>
 2d2:	0205                	addi	tp,tp,1
 2d4:	4289                	li	t0,2
 2d6:	fe5216e3          	bne	tp,t0,2c2 <test_4+0x4>

000002da <test_5>:
 2da:	4e15                	li	t3,5
 2dc:	4201                	li	tp,0
 2de:	00000317          	auipc	t1,0x0
 2e2:	01230313          	addi	t1,t1,18 # 2f0 <test_5+0x16>
 2e6:	0001                	nop
 2e8:	000309e7          	jalr	s3,t1
 2ec:	07c01263          	bne	zero,t3,350 <fail>
 2f0:	0205                	addi	tp,tp,1
 2f2:	4289                	li	t0,2
 2f4:	fe5215e3          	bne	tp,t0,2de <test_5+0x4>

000002f8 <test_6>:
 2f8:	4e19                	li	t3,6
 2fa:	4201                	li	tp,0
 2fc:	00000317          	auipc	t1,0x0
 300:	01430313          	addi	t1,t1,20 # 310 <test_6+0x18>
 304:	0001                	nop
 306:	0001                	nop
 308:	000309e7          	jalr	s3,t1
 30c:	05c01263          	bne	zero,t3,350 <fail>
 310:	0205                	addi	tp,tp,1
 312:	4289                	li	t0,2
 314:	fe5214e3          	bne	tp,t0,2fc <test_6+0x4>

00000318 <test_7>:
 318:	00100293          	li	t0,1
 31c:	00000317          	auipc	t1,0x0
 320:	01c30313          	addi	t1,t1,28 # 338 <test_7+0x20>
 324:	ffc30067          	jr	-4(t1)
 328:	00128293          	addi	t0,t0,1
 32c:	00128293          	addi	t0,t0,1
 330:	00128293          	addi	t0,t0,1
 334:	00128293          	addi	t0,t0,1
 338:	00128293          	addi	t0,t0,1
 33c:	00128293          	addi	t0,t0,1
 340:	00400e93          	li	t4,4
 344:	00700e13          	li	t3,7
 348:	01d29463          	bne	t0,t4,350 <fail>
 34c:	01c01863          	bne	zero,t3,35c <pass>

00000350 <fail>:
 350:	0ff0000f          	fence
 354:	85f2                	mv	a1,t3
 356:	4505                	li	a0,1
 358:	00000073          	ecall

0000035c <pass>:
 35c:	0ff0000f          	fence
 360:	85f2                	mv	a1,t3
 362:	4501                	li	a0,0
 364:	00000073          	ecall

00000368 <ecall>:
 368:	00000073          	ecall
	...

00000380 <sc_exit>:
 380:	d75ff06f          	j	f4 <SIM_EXIT>
 384:	00000013          	nop
 388:	00000013          	nop
 38c:	00000013          	nop
 390:	00000013          	nop
 394:	00000013          	nop
 398:	00000013          	nop
 39c:	00000013          	nop
	...

Disassembly of section .tohost:

000003c0 <tohost>:
	...

00000400 <fromhost>:
	...
