
/media/sf_virtualbox_shared/scr1_opensource/build/lbu.elf:     file format elf32-littleriscv


Disassembly of section .text.init:

00000000 <SIM_EXIT-0xf4>:
	...

000000f4 <SIM_EXIT>:
  f4:	00000013          	nop

000000f8 <SIM_STOP>:
  f8:	0000006f          	j	f8 <SIM_STOP>
  fc:	ffff                	0xffff
  fe:	ffff                	0xffff
	...

000001c0 <trap_vector>:
 1c0:	34202f73          	csrr	t5,mcause
 1c4:	4fa1                	li	t6,8
 1c6:	03ff0563          	beq	t5,t6,1f0 <_report>
 1ca:	4fa5                	li	t6,9
 1cc:	03ff0263          	beq	t5,t6,1f0 <_report>
 1d0:	4fad                	li	t6,11
 1d2:	01ff0f63          	beq	t5,t6,1f0 <_report>
 1d6:	00000f17          	auipc	t5,0x0
 1da:	e2af0f13          	addi	t5,t5,-470 # 0 <CL_SIZE-0x20>
 1de:	000f0363          	beqz	t5,1e4 <trap_vector+0x24>
 1e2:	8f02                	jr	t5
 1e4:	34202f73          	csrr	t5,mcause
 1e8:	000f5363          	bgez	t5,1ee <handle_exception>
 1ec:	a009                	j	1ee <handle_exception>

000001ee <handle_exception>:
 1ee:	4505                	li	a0,1

000001f0 <_report>:
 1f0:	2b00006f          	j	4a0 <sc_exit>
 1f4:	00000013          	nop
 1f8:	00000013          	nop
 1fc:	00000013          	nop

00000200 <_start>:
 200:	f1402573          	csrr	a0,mhartid
 204:	e101                	bnez	a0,204 <_start+0x4>
 206:	4e01                	li	t3,0
 208:	00000297          	auipc	t0,0x0
 20c:	fb828293          	addi	t0,t0,-72 # 1c0 <trap_vector>
 210:	30529073          	csrw	mtvec,t0
 214:	4505                	li	a0,1
 216:	057e                	slli	a0,a0,0x1f
 218:	00054863          	bltz	a0,228 <_start+0x28>
 21c:	0ff0000f          	fence
 220:	85f2                	mv	a1,t3
 222:	4501                	li	a0,0
 224:	00000073          	ecall
 228:	00000297          	auipc	t0,0x0
 22c:	dd828293          	addi	t0,t0,-552 # 0 <CL_SIZE-0x20>
 230:	00028e63          	beqz	t0,24c <_start+0x4c>
 234:	10529073          	csrw	stvec,t0
 238:	0000b2b7          	lui	t0,0xb
 23c:	10928293          	addi	t0,t0,265 # b109 <_gp+0xa3c1>
 240:	30229073          	csrw	medeleg,t0
 244:	30202373          	csrr	t1,medeleg
 248:	fa6293e3          	bne	t0,t1,1ee <handle_exception>
 24c:	30005073          	csrwi	mstatus,0
 250:	00000297          	auipc	t0,0x0
 254:	05028293          	addi	t0,t0,80 # 2a0 <_run_test>
 258:	34129073          	csrw	mepc,t0
 25c:	f1402573          	csrr	a0,mhartid
 260:	30200073          	mret
	...

Disassembly of section .text:

000002a0 <_run_test>:
 2a0:	00000097          	auipc	ra,0x0
 2a4:	24008093          	addi	ra,ra,576 # 4e0 <begin_signature>
 2a8:	0000c183          	lbu	gp,0(ra)
 2ac:	0ff00e93          	li	t4,255
 2b0:	4e09                	li	t3,2
 2b2:	1dd19363          	bne	gp,t4,478 <fail>

000002b6 <test_3>:
 2b6:	00000097          	auipc	ra,0x0
 2ba:	22a08093          	addi	ra,ra,554 # 4e0 <begin_signature>
 2be:	0010c183          	lbu	gp,1(ra)
 2c2:	4e81                	li	t4,0
 2c4:	4e0d                	li	t3,3
 2c6:	1bd19963          	bne	gp,t4,478 <fail>

000002ca <test_4>:
 2ca:	00000097          	auipc	ra,0x0
 2ce:	21608093          	addi	ra,ra,534 # 4e0 <begin_signature>
 2d2:	0020c183          	lbu	gp,2(ra)
 2d6:	0f000e93          	li	t4,240
 2da:	4e11                	li	t3,4
 2dc:	19d19e63          	bne	gp,t4,478 <fail>

000002e0 <test_5>:
 2e0:	00000097          	auipc	ra,0x0
 2e4:	20008093          	addi	ra,ra,512 # 4e0 <begin_signature>
 2e8:	0030c183          	lbu	gp,3(ra)
 2ec:	4ebd                	li	t4,15
 2ee:	4e15                	li	t3,5
 2f0:	19d19463          	bne	gp,t4,478 <fail>

000002f4 <test_6>:
 2f4:	00000097          	auipc	ra,0x0
 2f8:	1ef08093          	addi	ra,ra,495 # 4e3 <tdat4>
 2fc:	ffd0c183          	lbu	gp,-3(ra)
 300:	0ff00e93          	li	t4,255
 304:	4e19                	li	t3,6
 306:	17d19963          	bne	gp,t4,478 <fail>

0000030a <test_7>:
 30a:	00000097          	auipc	ra,0x0
 30e:	1d908093          	addi	ra,ra,473 # 4e3 <tdat4>
 312:	ffe0c183          	lbu	gp,-2(ra)
 316:	4e81                	li	t4,0
 318:	4e1d                	li	t3,7
 31a:	15d19f63          	bne	gp,t4,478 <fail>

0000031e <test_8>:
 31e:	00000097          	auipc	ra,0x0
 322:	1c508093          	addi	ra,ra,453 # 4e3 <tdat4>
 326:	fff0c183          	lbu	gp,-1(ra)
 32a:	0f000e93          	li	t4,240
 32e:	4e21                	li	t3,8
 330:	15d19463          	bne	gp,t4,478 <fail>

00000334 <test_9>:
 334:	00000097          	auipc	ra,0x0
 338:	1af08093          	addi	ra,ra,431 # 4e3 <tdat4>
 33c:	0000c183          	lbu	gp,0(ra)
 340:	4ebd                	li	t4,15
 342:	4e25                	li	t3,9
 344:	13d19a63          	bne	gp,t4,478 <fail>

00000348 <test_10>:
 348:	00000097          	auipc	ra,0x0
 34c:	19808093          	addi	ra,ra,408 # 4e0 <begin_signature>
 350:	1081                	addi	ra,ra,-32
 352:	0200c283          	lbu	t0,32(ra)
 356:	0ff00e93          	li	t4,255
 35a:	4e29                	li	t3,10
 35c:	11d29e63          	bne	t0,t4,478 <fail>

00000360 <test_11>:
 360:	00000097          	auipc	ra,0x0
 364:	18008093          	addi	ra,ra,384 # 4e0 <begin_signature>
 368:	10e9                	addi	ra,ra,-6
 36a:	0070c283          	lbu	t0,7(ra)
 36e:	4e81                	li	t4,0
 370:	4e2d                	li	t3,11
 372:	11d29363          	bne	t0,t4,478 <fail>

00000376 <test_12>:
 376:	4e31                	li	t3,12
 378:	4201                	li	tp,0
 37a:	00000097          	auipc	ra,0x0
 37e:	16708093          	addi	ra,ra,359 # 4e1 <tdat2>
 382:	0010c183          	lbu	gp,1(ra)
 386:	00018313          	mv	t1,gp
 38a:	0f000e93          	li	t4,240
 38e:	0fd31563          	bne	t1,t4,478 <fail>
 392:	0205                	addi	tp,tp,1
 394:	4289                	li	t0,2
 396:	fe5212e3          	bne	tp,t0,37a <test_12+0x4>

0000039a <test_13>:
 39a:	4e35                	li	t3,13
 39c:	4201                	li	tp,0
 39e:	00000097          	auipc	ra,0x0
 3a2:	14408093          	addi	ra,ra,324 # 4e2 <tdat3>
 3a6:	0010c183          	lbu	gp,1(ra)
 3aa:	0001                	nop
 3ac:	00018313          	mv	t1,gp
 3b0:	4ebd                	li	t4,15
 3b2:	0dd31363          	bne	t1,t4,478 <fail>
 3b6:	0205                	addi	tp,tp,1
 3b8:	4289                	li	t0,2
 3ba:	fe5212e3          	bne	tp,t0,39e <test_13+0x4>

000003be <test_14>:
 3be:	4e39                	li	t3,14
 3c0:	4201                	li	tp,0
 3c2:	00000097          	auipc	ra,0x0
 3c6:	11e08093          	addi	ra,ra,286 # 4e0 <begin_signature>
 3ca:	0010c183          	lbu	gp,1(ra)
 3ce:	0001                	nop
 3d0:	0001                	nop
 3d2:	00018313          	mv	t1,gp
 3d6:	4e81                	li	t4,0
 3d8:	0bd31063          	bne	t1,t4,478 <fail>
 3dc:	0205                	addi	tp,tp,1
 3de:	4289                	li	t0,2
 3e0:	fe5211e3          	bne	tp,t0,3c2 <test_14+0x4>

000003e4 <test_15>:
 3e4:	4e3d                	li	t3,15
 3e6:	4201                	li	tp,0
 3e8:	00000097          	auipc	ra,0x0
 3ec:	0f908093          	addi	ra,ra,249 # 4e1 <tdat2>
 3f0:	0010c183          	lbu	gp,1(ra)
 3f4:	0f000e93          	li	t4,240
 3f8:	09d19063          	bne	gp,t4,478 <fail>
 3fc:	0205                	addi	tp,tp,1
 3fe:	4289                	li	t0,2
 400:	fe5214e3          	bne	tp,t0,3e8 <test_15+0x4>

00000404 <test_16>:
 404:	4e41                	li	t3,16
 406:	4201                	li	tp,0
 408:	00000097          	auipc	ra,0x0
 40c:	0da08093          	addi	ra,ra,218 # 4e2 <tdat3>
 410:	0001                	nop
 412:	0010c183          	lbu	gp,1(ra)
 416:	4ebd                	li	t4,15
 418:	07d19063          	bne	gp,t4,478 <fail>
 41c:	0205                	addi	tp,tp,1
 41e:	4289                	li	t0,2
 420:	fe5214e3          	bne	tp,t0,408 <test_16+0x4>

00000424 <test_17>:
 424:	4e45                	li	t3,17
 426:	4201                	li	tp,0
 428:	00000097          	auipc	ra,0x0
 42c:	0b808093          	addi	ra,ra,184 # 4e0 <begin_signature>
 430:	0001                	nop
 432:	0001                	nop
 434:	0010c183          	lbu	gp,1(ra)
 438:	4e81                	li	t4,0
 43a:	03d19f63          	bne	gp,t4,478 <fail>
 43e:	0205                	addi	tp,tp,1
 440:	4289                	li	t0,2
 442:	fe5213e3          	bne	tp,t0,428 <test_17+0x4>

00000446 <test_18>:
 446:	00000297          	auipc	t0,0x0
 44a:	09a28293          	addi	t0,t0,154 # 4e0 <begin_signature>
 44e:	0002c103          	lbu	sp,0(t0)
 452:	4109                	li	sp,2
 454:	4e89                	li	t4,2
 456:	4e49                	li	t3,18
 458:	03d11063          	bne	sp,t4,478 <fail>

0000045c <test_19>:
 45c:	00000297          	auipc	t0,0x0
 460:	08428293          	addi	t0,t0,132 # 4e0 <begin_signature>
 464:	0002c103          	lbu	sp,0(t0)
 468:	0001                	nop
 46a:	4109                	li	sp,2
 46c:	4e89                	li	t4,2
 46e:	4e4d                	li	t3,19
 470:	01d11463          	bne	sp,t4,478 <fail>
 474:	01c01863          	bne	zero,t3,484 <pass>

00000478 <fail>:
 478:	0ff0000f          	fence
 47c:	85f2                	mv	a1,t3
 47e:	4505                	li	a0,1
 480:	00000073          	ecall

00000484 <pass>:
 484:	0ff0000f          	fence
 488:	85f2                	mv	a1,t3
 48a:	4501                	li	a0,0
 48c:	00000073          	ecall

00000490 <ecall>:
 490:	00000073          	ecall
	...

000004a0 <sc_exit>:
 4a0:	c55ff06f          	j	f4 <SIM_EXIT>
 4a4:	00000013          	nop
 4a8:	00000013          	nop
 4ac:	00000013          	nop
 4b0:	00000013          	nop
 4b4:	00000013          	nop
 4b8:	00000013          	nop
 4bc:	00000013          	nop
	...

Disassembly of section .tohost:

00000500 <tohost>:
	...

00000540 <fromhost>:
	...
