
/media/sf_virtualbox_shared/scr1_opensource/build/lh.elf:     file format elf32-littleriscv


Disassembly of section .text.init:

00000000 <SIM_EXIT-0xf4>:
	...

000000f4 <SIM_EXIT>:
  f4:	00000013          	nop

000000f8 <SIM_STOP>:
  f8:	0000006f          	j	f8 <SIM_STOP>
  fc:	ffff                	0xffff
  fe:	ffff                	0xffff
	...

000001c0 <trap_vector>:
 1c0:	34202f73          	csrr	t5,mcause
 1c4:	4fa1                	li	t6,8
 1c6:	03ff0563          	beq	t5,t6,1f0 <_report>
 1ca:	4fa5                	li	t6,9
 1cc:	03ff0263          	beq	t5,t6,1f0 <_report>
 1d0:	4fad                	li	t6,11
 1d2:	01ff0f63          	beq	t5,t6,1f0 <_report>
 1d6:	00000f17          	auipc	t5,0x0
 1da:	e2af0f13          	addi	t5,t5,-470 # 0 <CL_SIZE-0x20>
 1de:	000f0363          	beqz	t5,1e4 <trap_vector+0x24>
 1e2:	8f02                	jr	t5
 1e4:	34202f73          	csrr	t5,mcause
 1e8:	000f5363          	bgez	t5,1ee <handle_exception>
 1ec:	a009                	j	1ee <handle_exception>

000001ee <handle_exception>:
 1ee:	4505                	li	a0,1

000001f0 <_report>:
 1f0:	2f00006f          	j	4e0 <sc_exit>
 1f4:	00000013          	nop
 1f8:	00000013          	nop
 1fc:	00000013          	nop

00000200 <_start>:
 200:	f1402573          	csrr	a0,mhartid
 204:	e101                	bnez	a0,204 <_start+0x4>
 206:	4e01                	li	t3,0
 208:	00000297          	auipc	t0,0x0
 20c:	fb828293          	addi	t0,t0,-72 # 1c0 <trap_vector>
 210:	30529073          	csrw	mtvec,t0
 214:	4505                	li	a0,1
 216:	057e                	slli	a0,a0,0x1f
 218:	00054863          	bltz	a0,228 <_start+0x28>
 21c:	0ff0000f          	fence
 220:	85f2                	mv	a1,t3
 222:	4501                	li	a0,0
 224:	00000073          	ecall
 228:	00000297          	auipc	t0,0x0
 22c:	dd828293          	addi	t0,t0,-552 # 0 <CL_SIZE-0x20>
 230:	00028e63          	beqz	t0,24c <_start+0x4c>
 234:	10529073          	csrw	stvec,t0
 238:	0000b2b7          	lui	t0,0xb
 23c:	10928293          	addi	t0,t0,265 # b109 <_gp+0xa381>
 240:	30229073          	csrw	medeleg,t0
 244:	30202373          	csrr	t1,medeleg
 248:	fa6293e3          	bne	t0,t1,1ee <handle_exception>
 24c:	30005073          	csrwi	mstatus,0
 250:	00000297          	auipc	t0,0x0
 254:	05028293          	addi	t0,t0,80 # 2a0 <_run_test>
 258:	34129073          	csrw	mepc,t0
 25c:	f1402573          	csrr	a0,mhartid
 260:	30200073          	mret
	...

Disassembly of section .text:

000002a0 <_run_test>:
 2a0:	00000097          	auipc	ra,0x0
 2a4:	28008093          	addi	ra,ra,640 # 520 <begin_signature>
 2a8:	00009183          	lh	gp,0(ra)
 2ac:	0ff00e93          	li	t4,255
 2b0:	4e09                	li	t3,2
 2b2:	1fd19c63          	bne	gp,t4,4aa <fail>

000002b6 <test_3>:
 2b6:	00000097          	auipc	ra,0x0
 2ba:	26a08093          	addi	ra,ra,618 # 520 <begin_signature>
 2be:	00209183          	lh	gp,2(ra)
 2c2:	f0000e93          	li	t4,-256
 2c6:	4e0d                	li	t3,3
 2c8:	1fd19163          	bne	gp,t4,4aa <fail>

000002cc <test_4>:
 2cc:	00000097          	auipc	ra,0x0
 2d0:	25408093          	addi	ra,ra,596 # 520 <begin_signature>
 2d4:	00409183          	lh	gp,4(ra)
 2d8:	00001eb7          	lui	t4,0x1
 2dc:	ff0e8e93          	addi	t4,t4,-16 # ff0 <_gp+0x268>
 2e0:	4e11                	li	t3,4
 2e2:	1dd19463          	bne	gp,t4,4aa <fail>

000002e6 <test_5>:
 2e6:	00000097          	auipc	ra,0x0
 2ea:	23a08093          	addi	ra,ra,570 # 520 <begin_signature>
 2ee:	00609183          	lh	gp,6(ra)
 2f2:	fffffeb7          	lui	t4,0xfffff
 2f6:	00fe8e93          	addi	t4,t4,15 # fffff00f <_gp+0xffffe287>
 2fa:	4e15                	li	t3,5
 2fc:	1bd19763          	bne	gp,t4,4aa <fail>

00000300 <test_6>:
 300:	00000097          	auipc	ra,0x0
 304:	22608093          	addi	ra,ra,550 # 526 <tdat4>
 308:	ffa09183          	lh	gp,-6(ra)
 30c:	0ff00e93          	li	t4,255
 310:	4e19                	li	t3,6
 312:	19d19c63          	bne	gp,t4,4aa <fail>

00000316 <test_7>:
 316:	00000097          	auipc	ra,0x0
 31a:	21008093          	addi	ra,ra,528 # 526 <tdat4>
 31e:	ffc09183          	lh	gp,-4(ra)
 322:	f0000e93          	li	t4,-256
 326:	4e1d                	li	t3,7
 328:	19d19163          	bne	gp,t4,4aa <fail>

0000032c <test_8>:
 32c:	00000097          	auipc	ra,0x0
 330:	1fa08093          	addi	ra,ra,506 # 526 <tdat4>
 334:	ffe09183          	lh	gp,-2(ra)
 338:	00001eb7          	lui	t4,0x1
 33c:	ff0e8e93          	addi	t4,t4,-16 # ff0 <_gp+0x268>
 340:	4e21                	li	t3,8
 342:	17d19463          	bne	gp,t4,4aa <fail>

00000346 <test_9>:
 346:	00000097          	auipc	ra,0x0
 34a:	1e008093          	addi	ra,ra,480 # 526 <tdat4>
 34e:	00009183          	lh	gp,0(ra)
 352:	fffffeb7          	lui	t4,0xfffff
 356:	00fe8e93          	addi	t4,t4,15 # fffff00f <_gp+0xffffe287>
 35a:	4e25                	li	t3,9
 35c:	15d19763          	bne	gp,t4,4aa <fail>

00000360 <test_10>:
 360:	00000097          	auipc	ra,0x0
 364:	1c008093          	addi	ra,ra,448 # 520 <begin_signature>
 368:	1081                	addi	ra,ra,-32
 36a:	02009283          	lh	t0,32(ra)
 36e:	0ff00e93          	li	t4,255
 372:	4e29                	li	t3,10
 374:	13d29b63          	bne	t0,t4,4aa <fail>

00000378 <test_11>:
 378:	00000097          	auipc	ra,0x0
 37c:	1a808093          	addi	ra,ra,424 # 520 <begin_signature>
 380:	10ed                	addi	ra,ra,-5
 382:	00709283          	lh	t0,7(ra)
 386:	f0000e93          	li	t4,-256
 38a:	4e2d                	li	t3,11
 38c:	11d29f63          	bne	t0,t4,4aa <fail>

00000390 <test_12>:
 390:	4e31                	li	t3,12
 392:	4201                	li	tp,0
 394:	00000097          	auipc	ra,0x0
 398:	18e08093          	addi	ra,ra,398 # 522 <tdat2>
 39c:	00209183          	lh	gp,2(ra)
 3a0:	00018313          	mv	t1,gp
 3a4:	00001eb7          	lui	t4,0x1
 3a8:	ff0e8e93          	addi	t4,t4,-16 # ff0 <_gp+0x268>
 3ac:	0fd31f63          	bne	t1,t4,4aa <fail>
 3b0:	0205                	addi	tp,tp,1
 3b2:	4289                	li	t0,2
 3b4:	fe5210e3          	bne	tp,t0,394 <test_12+0x4>

000003b8 <test_13>:
 3b8:	4e35                	li	t3,13
 3ba:	4201                	li	tp,0
 3bc:	00000097          	auipc	ra,0x0
 3c0:	16808093          	addi	ra,ra,360 # 524 <tdat3>
 3c4:	00209183          	lh	gp,2(ra)
 3c8:	0001                	nop
 3ca:	00018313          	mv	t1,gp
 3ce:	fffffeb7          	lui	t4,0xfffff
 3d2:	00fe8e93          	addi	t4,t4,15 # fffff00f <_gp+0xffffe287>
 3d6:	0dd31a63          	bne	t1,t4,4aa <fail>
 3da:	0205                	addi	tp,tp,1
 3dc:	4289                	li	t0,2
 3de:	fc521fe3          	bne	tp,t0,3bc <test_13+0x4>

000003e2 <test_14>:
 3e2:	4e39                	li	t3,14
 3e4:	4201                	li	tp,0
 3e6:	00000097          	auipc	ra,0x0
 3ea:	13a08093          	addi	ra,ra,314 # 520 <begin_signature>
 3ee:	00209183          	lh	gp,2(ra)
 3f2:	0001                	nop
 3f4:	0001                	nop
 3f6:	00018313          	mv	t1,gp
 3fa:	f0000e93          	li	t4,-256
 3fe:	0bd31663          	bne	t1,t4,4aa <fail>
 402:	0205                	addi	tp,tp,1
 404:	4289                	li	t0,2
 406:	fe5210e3          	bne	tp,t0,3e6 <test_14+0x4>

0000040a <test_15>:
 40a:	4e3d                	li	t3,15
 40c:	4201                	li	tp,0
 40e:	00000097          	auipc	ra,0x0
 412:	11408093          	addi	ra,ra,276 # 522 <tdat2>
 416:	00209183          	lh	gp,2(ra)
 41a:	00001eb7          	lui	t4,0x1
 41e:	ff0e8e93          	addi	t4,t4,-16 # ff0 <_gp+0x268>
 422:	09d19463          	bne	gp,t4,4aa <fail>
 426:	0205                	addi	tp,tp,1
 428:	4289                	li	t0,2
 42a:	fe5212e3          	bne	tp,t0,40e <test_15+0x4>

0000042e <test_16>:
 42e:	4e41                	li	t3,16
 430:	4201                	li	tp,0
 432:	00000097          	auipc	ra,0x0
 436:	0f208093          	addi	ra,ra,242 # 524 <tdat3>
 43a:	0001                	nop
 43c:	00209183          	lh	gp,2(ra)
 440:	fffffeb7          	lui	t4,0xfffff
 444:	00fe8e93          	addi	t4,t4,15 # fffff00f <_gp+0xffffe287>
 448:	07d19163          	bne	gp,t4,4aa <fail>
 44c:	0205                	addi	tp,tp,1
 44e:	4289                	li	t0,2
 450:	fe5211e3          	bne	tp,t0,432 <test_16+0x4>

00000454 <test_17>:
 454:	4e45                	li	t3,17
 456:	4201                	li	tp,0
 458:	00000097          	auipc	ra,0x0
 45c:	0c808093          	addi	ra,ra,200 # 520 <begin_signature>
 460:	0001                	nop
 462:	0001                	nop
 464:	00209183          	lh	gp,2(ra)
 468:	f0000e93          	li	t4,-256
 46c:	03d19f63          	bne	gp,t4,4aa <fail>
 470:	0205                	addi	tp,tp,1
 472:	4289                	li	t0,2
 474:	fe5212e3          	bne	tp,t0,458 <test_17+0x4>

00000478 <test_18>:
 478:	00000297          	auipc	t0,0x0
 47c:	0a828293          	addi	t0,t0,168 # 520 <begin_signature>
 480:	00029103          	lh	sp,0(t0)
 484:	4109                	li	sp,2
 486:	4e89                	li	t4,2
 488:	4e49                	li	t3,18
 48a:	03d11063          	bne	sp,t4,4aa <fail>

0000048e <test_19>:
 48e:	00000297          	auipc	t0,0x0
 492:	09228293          	addi	t0,t0,146 # 520 <begin_signature>
 496:	00029103          	lh	sp,0(t0)
 49a:	0001                	nop
 49c:	4109                	li	sp,2
 49e:	4e89                	li	t4,2
 4a0:	4e4d                	li	t3,19
 4a2:	01d11463          	bne	sp,t4,4aa <fail>
 4a6:	01c01863          	bne	zero,t3,4b6 <pass>

000004aa <fail>:
 4aa:	0ff0000f          	fence
 4ae:	85f2                	mv	a1,t3
 4b0:	4505                	li	a0,1
 4b2:	00000073          	ecall

000004b6 <pass>:
 4b6:	0ff0000f          	fence
 4ba:	85f2                	mv	a1,t3
 4bc:	4501                	li	a0,0
 4be:	00000073          	ecall

000004c2 <ecall>:
 4c2:	00000073          	ecall
	...

000004e0 <sc_exit>:
 4e0:	c15ff06f          	j	f4 <SIM_EXIT>
 4e4:	00000013          	nop
 4e8:	00000013          	nop
 4ec:	00000013          	nop
 4f0:	00000013          	nop
 4f4:	00000013          	nop
 4f8:	00000013          	nop
 4fc:	00000013          	nop
	...

Disassembly of section .tohost:

00000540 <tohost>:
	...

00000580 <fromhost>:
	...
