
/media/sf_virtualbox_shared/scr1_opensource/build/lui.elf:     file format elf32-littleriscv


Disassembly of section .text.init:

00000000 <SIM_EXIT-0xf4>:
	...

000000f4 <SIM_EXIT>:
  f4:	00000013          	nop

000000f8 <SIM_STOP>:
  f8:	0000006f          	j	f8 <SIM_STOP>
  fc:	ffff                	0xffff
  fe:	ffff                	0xffff
	...

000001c0 <trap_vector>:
 1c0:	34202f73          	csrr	t5,mcause
 1c4:	4fa1                	li	t6,8
 1c6:	03ff0563          	beq	t5,t6,1f0 <_report>
 1ca:	4fa5                	li	t6,9
 1cc:	03ff0263          	beq	t5,t6,1f0 <_report>
 1d0:	4fad                	li	t6,11
 1d2:	01ff0f63          	beq	t5,t6,1f0 <_report>
 1d6:	00000f17          	auipc	t5,0x0
 1da:	e2af0f13          	addi	t5,t5,-470 # 0 <CL_SIZE-0x20>
 1de:	000f0363          	beqz	t5,1e4 <trap_vector+0x24>
 1e2:	8f02                	jr	t5
 1e4:	34202f73          	csrr	t5,mcause
 1e8:	000f5363          	bgez	t5,1ee <handle_exception>
 1ec:	a009                	j	1ee <handle_exception>

000001ee <handle_exception>:
 1ee:	4505                	li	a0,1

000001f0 <_report>:
 1f0:	1300006f          	j	320 <sc_exit>
 1f4:	00000013          	nop
 1f8:	00000013          	nop
 1fc:	00000013          	nop

00000200 <_start>:
 200:	f1402573          	csrr	a0,mhartid
 204:	e101                	bnez	a0,204 <_start+0x4>
 206:	4e01                	li	t3,0
 208:	00000297          	auipc	t0,0x0
 20c:	fb828293          	addi	t0,t0,-72 # 1c0 <trap_vector>
 210:	30529073          	csrw	mtvec,t0
 214:	4505                	li	a0,1
 216:	057e                	slli	a0,a0,0x1f
 218:	00054863          	bltz	a0,228 <_start+0x28>
 21c:	0ff0000f          	fence
 220:	85f2                	mv	a1,t3
 222:	4501                	li	a0,0
 224:	00000073          	ecall
 228:	00000297          	auipc	t0,0x0
 22c:	dd828293          	addi	t0,t0,-552 # 0 <CL_SIZE-0x20>
 230:	00028e63          	beqz	t0,24c <_start+0x4c>
 234:	10529073          	csrw	stvec,t0
 238:	0000b2b7          	lui	t0,0xb
 23c:	10928293          	addi	t0,t0,265 # b109 <_gp+0xa541>
 240:	30229073          	csrw	medeleg,t0
 244:	30202373          	csrr	t1,medeleg
 248:	fa6293e3          	bne	t0,t1,1ee <handle_exception>
 24c:	30005073          	csrwi	mstatus,0
 250:	00000297          	auipc	t0,0x0
 254:	05028293          	addi	t0,t0,80 # 2a0 <_run_test>
 258:	34129073          	csrw	mepc,t0
 25c:	f1402573          	csrr	a0,mhartid
 260:	30200073          	mret
	...

Disassembly of section .text:

000002a0 <_run_test>:
 2a0:	000000b7          	lui	ra,0x0
 2a4:	4e81                	li	t4,0
 2a6:	4e09                	li	t3,2
 2a8:	05d09463          	bne	ra,t4,2f0 <fail>

000002ac <test_3>:
 2ac:	70fd                	lui	ra,0xfffff
 2ae:	4010d093          	srai	ra,ra,0x1
 2b2:	80000e93          	li	t4,-2048
 2b6:	4e0d                	li	t3,3
 2b8:	03d09c63          	bne	ra,t4,2f0 <fail>

000002bc <test_4>:
 2bc:	7ffff0b7          	lui	ra,0x7ffff
 2c0:	4140d093          	srai	ra,ra,0x14
 2c4:	7ff00e93          	li	t4,2047
 2c8:	4e11                	li	t3,4
 2ca:	03d09363          	bne	ra,t4,2f0 <fail>

000002ce <test_5>:
 2ce:	800000b7          	lui	ra,0x80000
 2d2:	4140d093          	srai	ra,ra,0x14
 2d6:	80000e93          	li	t4,-2048
 2da:	4e15                	li	t3,5
 2dc:	01d09a63          	bne	ra,t4,2f0 <fail>

000002e0 <test_6>:
 2e0:	80000037          	lui	zero,0x80000
 2e4:	4e81                	li	t4,0
 2e6:	4e19                	li	t3,6
 2e8:	01d01463          	bne	zero,t4,2f0 <fail>
 2ec:	01c01863          	bne	zero,t3,2fc <pass>

000002f0 <fail>:
 2f0:	0ff0000f          	fence
 2f4:	85f2                	mv	a1,t3
 2f6:	4505                	li	a0,1
 2f8:	00000073          	ecall

000002fc <pass>:
 2fc:	0ff0000f          	fence
 300:	85f2                	mv	a1,t3
 302:	4501                	li	a0,0
 304:	00000073          	ecall

00000308 <ecall>:
 308:	00000073          	ecall
	...

00000320 <sc_exit>:
 320:	dd5ff06f          	j	f4 <SIM_EXIT>
 324:	00000013          	nop
 328:	00000013          	nop
 32c:	00000013          	nop
 330:	00000013          	nop
 334:	00000013          	nop
 338:	00000013          	nop
 33c:	00000013          	nop
	...

Disassembly of section .tohost:

00000380 <tohost>:
	...

000003c0 <fromhost>:
	...
