
/media/sf_virtualbox_shared/scr1_opensource/build/lw.elf:     file format elf32-littleriscv


Disassembly of section .text.init:

00000000 <SIM_EXIT-0xf4>:
	...

000000f4 <SIM_EXIT>:
  f4:	00000013          	nop

000000f8 <SIM_STOP>:
  f8:	0000006f          	j	f8 <SIM_STOP>
  fc:	ffff                	0xffff
  fe:	ffff                	0xffff
	...

000001c0 <trap_vector>:
 1c0:	34202f73          	csrr	t5,mcause
 1c4:	4fa1                	li	t6,8
 1c6:	03ff0563          	beq	t5,t6,1f0 <_report>
 1ca:	4fa5                	li	t6,9
 1cc:	03ff0263          	beq	t5,t6,1f0 <_report>
 1d0:	4fad                	li	t6,11
 1d2:	01ff0f63          	beq	t5,t6,1f0 <_report>
 1d6:	00000f17          	auipc	t5,0x0
 1da:	e2af0f13          	addi	t5,t5,-470 # 0 <CL_SIZE-0x20>
 1de:	000f0363          	beqz	t5,1e4 <trap_vector+0x24>
 1e2:	8f02                	jr	t5
 1e4:	34202f73          	csrr	t5,mcause
 1e8:	000f5363          	bgez	t5,1ee <handle_exception>
 1ec:	a009                	j	1ee <handle_exception>

000001ee <handle_exception>:
 1ee:	4505                	li	a0,1

000001f0 <_report>:
 1f0:	3100006f          	j	500 <sc_exit>
 1f4:	00000013          	nop
 1f8:	00000013          	nop
 1fc:	00000013          	nop

00000200 <_start>:
 200:	f1402573          	csrr	a0,mhartid
 204:	e101                	bnez	a0,204 <_start+0x4>
 206:	4e01                	li	t3,0
 208:	00000297          	auipc	t0,0x0
 20c:	fb828293          	addi	t0,t0,-72 # 1c0 <trap_vector>
 210:	30529073          	csrw	mtvec,t0
 214:	4505                	li	a0,1
 216:	057e                	slli	a0,a0,0x1f
 218:	00054863          	bltz	a0,228 <_start+0x28>
 21c:	0ff0000f          	fence
 220:	85f2                	mv	a1,t3
 222:	4501                	li	a0,0
 224:	00000073          	ecall
 228:	00000297          	auipc	t0,0x0
 22c:	dd828293          	addi	t0,t0,-552 # 0 <CL_SIZE-0x20>
 230:	00028e63          	beqz	t0,24c <_start+0x4c>
 234:	10529073          	csrw	stvec,t0
 238:	0000b2b7          	lui	t0,0xb
 23c:	10928293          	addi	t0,t0,265 # b109 <_gp+0xa341>
 240:	30229073          	csrw	medeleg,t0
 244:	30202373          	csrr	t1,medeleg
 248:	fa6293e3          	bne	t0,t1,1ee <handle_exception>
 24c:	30005073          	csrwi	mstatus,0
 250:	00000297          	auipc	t0,0x0
 254:	05028293          	addi	t0,t0,80 # 2a0 <_run_test>
 258:	34129073          	csrw	mepc,t0
 25c:	f1402573          	csrr	a0,mhartid
 260:	30200073          	mret
	...

Disassembly of section .text:

000002a0 <_run_test>:
 2a0:	00000097          	auipc	ra,0x0
 2a4:	2a008093          	addi	ra,ra,672 # 540 <begin_signature>
 2a8:	0000a183          	lw	gp,0(ra)
 2ac:	00ff0eb7          	lui	t4,0xff0
 2b0:	0ffe8e93          	addi	t4,t4,255 # ff00ff <_gp+0xfef337>
 2b4:	4e09                	li	t3,2
 2b6:	21d19a63          	bne	gp,t4,4ca <fail>

000002ba <test_3>:
 2ba:	00000097          	auipc	ra,0x0
 2be:	28608093          	addi	ra,ra,646 # 540 <begin_signature>
 2c2:	0040a183          	lw	gp,4(ra)
 2c6:	ff010eb7          	lui	t4,0xff010
 2ca:	f00e8e93          	addi	t4,t4,-256 # ff00ff00 <_gp+0xff00f138>
 2ce:	4e0d                	li	t3,3
 2d0:	1fd19d63          	bne	gp,t4,4ca <fail>

000002d4 <test_4>:
 2d4:	00000097          	auipc	ra,0x0
 2d8:	26c08093          	addi	ra,ra,620 # 540 <begin_signature>
 2dc:	0080a183          	lw	gp,8(ra)
 2e0:	0ff01eb7          	lui	t4,0xff01
 2e4:	ff0e8e93          	addi	t4,t4,-16 # ff00ff0 <_gp+0xff00228>
 2e8:	4e11                	li	t3,4
 2ea:	1fd19063          	bne	gp,t4,4ca <fail>

000002ee <test_5>:
 2ee:	00000097          	auipc	ra,0x0
 2f2:	25208093          	addi	ra,ra,594 # 540 <begin_signature>
 2f6:	00c0a183          	lw	gp,12(ra)
 2fa:	f00ffeb7          	lui	t4,0xf00ff
 2fe:	00fe8e93          	addi	t4,t4,15 # f00ff00f <_gp+0xf00fe247>
 302:	4e15                	li	t3,5
 304:	1dd19363          	bne	gp,t4,4ca <fail>

00000308 <test_6>:
 308:	00000097          	auipc	ra,0x0
 30c:	24408093          	addi	ra,ra,580 # 54c <tdat4>
 310:	ff40a183          	lw	gp,-12(ra)
 314:	00ff0eb7          	lui	t4,0xff0
 318:	0ffe8e93          	addi	t4,t4,255 # ff00ff <_gp+0xfef337>
 31c:	4e19                	li	t3,6
 31e:	1bd19663          	bne	gp,t4,4ca <fail>

00000322 <test_7>:
 322:	00000097          	auipc	ra,0x0
 326:	22a08093          	addi	ra,ra,554 # 54c <tdat4>
 32a:	ff80a183          	lw	gp,-8(ra)
 32e:	ff010eb7          	lui	t4,0xff010
 332:	f00e8e93          	addi	t4,t4,-256 # ff00ff00 <_gp+0xff00f138>
 336:	4e1d                	li	t3,7
 338:	19d19963          	bne	gp,t4,4ca <fail>

0000033c <test_8>:
 33c:	00000097          	auipc	ra,0x0
 340:	21008093          	addi	ra,ra,528 # 54c <tdat4>
 344:	ffc0a183          	lw	gp,-4(ra)
 348:	0ff01eb7          	lui	t4,0xff01
 34c:	ff0e8e93          	addi	t4,t4,-16 # ff00ff0 <_gp+0xff00228>
 350:	4e21                	li	t3,8
 352:	17d19c63          	bne	gp,t4,4ca <fail>

00000356 <test_9>:
 356:	00000097          	auipc	ra,0x0
 35a:	1f608093          	addi	ra,ra,502 # 54c <tdat4>
 35e:	0000a183          	lw	gp,0(ra)
 362:	f00ffeb7          	lui	t4,0xf00ff
 366:	00fe8e93          	addi	t4,t4,15 # f00ff00f <_gp+0xf00fe247>
 36a:	4e25                	li	t3,9
 36c:	15d19f63          	bne	gp,t4,4ca <fail>

00000370 <test_10>:
 370:	00000097          	auipc	ra,0x0
 374:	1d008093          	addi	ra,ra,464 # 540 <begin_signature>
 378:	1081                	addi	ra,ra,-32
 37a:	0200a283          	lw	t0,32(ra)
 37e:	00ff0eb7          	lui	t4,0xff0
 382:	0ffe8e93          	addi	t4,t4,255 # ff00ff <_gp+0xfef337>
 386:	4e29                	li	t3,10
 388:	15d29163          	bne	t0,t4,4ca <fail>

0000038c <test_11>:
 38c:	00000097          	auipc	ra,0x0
 390:	1b408093          	addi	ra,ra,436 # 540 <begin_signature>
 394:	10f5                	addi	ra,ra,-3
 396:	0070a283          	lw	t0,7(ra)
 39a:	ff010eb7          	lui	t4,0xff010
 39e:	f00e8e93          	addi	t4,t4,-256 # ff00ff00 <_gp+0xff00f138>
 3a2:	4e2d                	li	t3,11
 3a4:	13d29363          	bne	t0,t4,4ca <fail>

000003a8 <test_12>:
 3a8:	4e31                	li	t3,12
 3aa:	4201                	li	tp,0
 3ac:	00000097          	auipc	ra,0x0
 3b0:	19808093          	addi	ra,ra,408 # 544 <tdat2>
 3b4:	0040a183          	lw	gp,4(ra)
 3b8:	00018313          	mv	t1,gp
 3bc:	0ff01eb7          	lui	t4,0xff01
 3c0:	ff0e8e93          	addi	t4,t4,-16 # ff00ff0 <_gp+0xff00228>
 3c4:	11d31363          	bne	t1,t4,4ca <fail>
 3c8:	0205                	addi	tp,tp,1
 3ca:	4289                	li	t0,2
 3cc:	fe5210e3          	bne	tp,t0,3ac <test_12+0x4>

000003d0 <test_13>:
 3d0:	4e35                	li	t3,13
 3d2:	4201                	li	tp,0
 3d4:	00000097          	auipc	ra,0x0
 3d8:	17408093          	addi	ra,ra,372 # 548 <tdat3>
 3dc:	0040a183          	lw	gp,4(ra)
 3e0:	0001                	nop
 3e2:	00018313          	mv	t1,gp
 3e6:	f00ffeb7          	lui	t4,0xf00ff
 3ea:	00fe8e93          	addi	t4,t4,15 # f00ff00f <_gp+0xf00fe247>
 3ee:	0dd31e63          	bne	t1,t4,4ca <fail>
 3f2:	0205                	addi	tp,tp,1
 3f4:	4289                	li	t0,2
 3f6:	fc521fe3          	bne	tp,t0,3d4 <test_13+0x4>

000003fa <test_14>:
 3fa:	4e39                	li	t3,14
 3fc:	4201                	li	tp,0
 3fe:	00000097          	auipc	ra,0x0
 402:	14208093          	addi	ra,ra,322 # 540 <begin_signature>
 406:	0040a183          	lw	gp,4(ra)
 40a:	0001                	nop
 40c:	0001                	nop
 40e:	00018313          	mv	t1,gp
 412:	ff010eb7          	lui	t4,0xff010
 416:	f00e8e93          	addi	t4,t4,-256 # ff00ff00 <_gp+0xff00f138>
 41a:	0bd31863          	bne	t1,t4,4ca <fail>
 41e:	0205                	addi	tp,tp,1
 420:	4289                	li	t0,2
 422:	fc521ee3          	bne	tp,t0,3fe <test_14+0x4>

00000426 <test_15>:
 426:	4e3d                	li	t3,15
 428:	4201                	li	tp,0
 42a:	00000097          	auipc	ra,0x0
 42e:	11a08093          	addi	ra,ra,282 # 544 <tdat2>
 432:	0040a183          	lw	gp,4(ra)
 436:	0ff01eb7          	lui	t4,0xff01
 43a:	ff0e8e93          	addi	t4,t4,-16 # ff00ff0 <_gp+0xff00228>
 43e:	09d19663          	bne	gp,t4,4ca <fail>
 442:	0205                	addi	tp,tp,1
 444:	4289                	li	t0,2
 446:	fe5212e3          	bne	tp,t0,42a <test_15+0x4>

0000044a <test_16>:
 44a:	4e41                	li	t3,16
 44c:	4201                	li	tp,0
 44e:	00000097          	auipc	ra,0x0
 452:	0fa08093          	addi	ra,ra,250 # 548 <tdat3>
 456:	0001                	nop
 458:	0040a183          	lw	gp,4(ra)
 45c:	f00ffeb7          	lui	t4,0xf00ff
 460:	00fe8e93          	addi	t4,t4,15 # f00ff00f <_gp+0xf00fe247>
 464:	07d19363          	bne	gp,t4,4ca <fail>
 468:	0205                	addi	tp,tp,1
 46a:	4289                	li	t0,2
 46c:	fe5211e3          	bne	tp,t0,44e <test_16+0x4>

00000470 <test_17>:
 470:	4e45                	li	t3,17
 472:	4201                	li	tp,0
 474:	00000097          	auipc	ra,0x0
 478:	0cc08093          	addi	ra,ra,204 # 540 <begin_signature>
 47c:	0001                	nop
 47e:	0001                	nop
 480:	0040a183          	lw	gp,4(ra)
 484:	ff010eb7          	lui	t4,0xff010
 488:	f00e8e93          	addi	t4,t4,-256 # ff00ff00 <_gp+0xff00f138>
 48c:	03d19f63          	bne	gp,t4,4ca <fail>
 490:	0205                	addi	tp,tp,1
 492:	4289                	li	t0,2
 494:	fe5210e3          	bne	tp,t0,474 <test_17+0x4>

00000498 <test_18>:
 498:	00000297          	auipc	t0,0x0
 49c:	0a828293          	addi	t0,t0,168 # 540 <begin_signature>
 4a0:	0002a103          	lw	sp,0(t0)
 4a4:	4109                	li	sp,2
 4a6:	4e89                	li	t4,2
 4a8:	4e49                	li	t3,18
 4aa:	03d11063          	bne	sp,t4,4ca <fail>

000004ae <test_19>:
 4ae:	00000297          	auipc	t0,0x0
 4b2:	09228293          	addi	t0,t0,146 # 540 <begin_signature>
 4b6:	0002a103          	lw	sp,0(t0)
 4ba:	0001                	nop
 4bc:	4109                	li	sp,2
 4be:	4e89                	li	t4,2
 4c0:	4e4d                	li	t3,19
 4c2:	01d11463          	bne	sp,t4,4ca <fail>
 4c6:	01c01863          	bne	zero,t3,4d6 <pass>

000004ca <fail>:
 4ca:	0ff0000f          	fence
 4ce:	85f2                	mv	a1,t3
 4d0:	4505                	li	a0,1
 4d2:	00000073          	ecall

000004d6 <pass>:
 4d6:	0ff0000f          	fence
 4da:	85f2                	mv	a1,t3
 4dc:	4501                	li	a0,0
 4de:	00000073          	ecall

000004e2 <ecall>:
 4e2:	00000073          	ecall
	...

00000500 <sc_exit>:
 500:	bf5ff06f          	j	f4 <SIM_EXIT>
 504:	00000013          	nop
 508:	00000013          	nop
 50c:	00000013          	nop
 510:	00000013          	nop
 514:	00000013          	nop
 518:	00000013          	nop
 51c:	00000013          	nop
	...

Disassembly of section .tohost:

00000580 <tohost>:
	...

000005c0 <fromhost>:
	...
