
/media/sf_virtualbox_shared/scr1_opensource/build/ma_addr.elf:     file format elf32-littleriscv


Disassembly of section .text.init:

00000000 <SIM_EXIT-0xf4>:
	...

000000f4 <SIM_EXIT>:
  f4:	00000013          	nop

000000f8 <SIM_STOP>:
  f8:	0000006f          	j	f8 <SIM_STOP>
  fc:	ffff                	0xffff
  fe:	ffff                	0xffff
	...

000001c0 <trap_vector>:
 1c0:	34202f73          	csrr	t5,mcause
 1c4:	4fa1                	li	t6,8
 1c6:	03ff0563          	beq	t5,t6,1f0 <_report>
 1ca:	4fa5                	li	t6,9
 1cc:	03ff0263          	beq	t5,t6,1f0 <_report>
 1d0:	4fad                	li	t6,11
 1d2:	01ff0f63          	beq	t5,t6,1f0 <_report>
 1d6:	00000f17          	auipc	t5,0x0
 1da:	272f0f13          	addi	t5,t5,626 # 448 <mtvec_handler>
 1de:	000f0363          	beqz	t5,1e4 <trap_vector+0x24>
 1e2:	8f02                	jr	t5
 1e4:	34202f73          	csrr	t5,mcause
 1e8:	000f5363          	bgez	t5,1ee <handle_exception>
 1ec:	a009                	j	1ee <handle_exception>

000001ee <handle_exception>:
 1ee:	4505                	li	a0,1

000001f0 <_report>:
 1f0:	2900006f          	j	480 <sc_exit>
 1f4:	00000013          	nop
 1f8:	00000013          	nop
 1fc:	00000013          	nop

00000200 <_start>:
 200:	f1402573          	csrr	a0,mhartid
 204:	e101                	bnez	a0,204 <_start+0x4>
 206:	4e01                	li	t3,0
 208:	00000297          	auipc	t0,0x0
 20c:	fb828293          	addi	t0,t0,-72 # 1c0 <trap_vector>
 210:	30529073          	csrw	mtvec,t0
 214:	4505                	li	a0,1
 216:	057e                	slli	a0,a0,0x1f
 218:	00054863          	bltz	a0,228 <_start+0x28>
 21c:	0ff0000f          	fence
 220:	85f2                	mv	a1,t3
 222:	4501                	li	a0,0
 224:	00000073          	ecall
 228:	00000297          	auipc	t0,0x0
 22c:	dd828293          	addi	t0,t0,-552 # 0 <CL_SIZE-0x20>
 230:	00028e63          	beqz	t0,24c <_start+0x4c>
 234:	10529073          	csrw	stvec,t0
 238:	0000b2b7          	lui	t0,0xb
 23c:	10928293          	addi	t0,t0,265 # b109 <_gp+0xa2c1>
 240:	30229073          	csrw	medeleg,t0
 244:	30202373          	csrr	t1,medeleg
 248:	fa6293e3          	bne	t0,t1,1ee <handle_exception>
 24c:	30005073          	csrwi	mstatus,0
 250:	00002537          	lui	a0,0x2
 254:	80050513          	addi	a0,a0,-2048 # 1800 <_gp+0x9b8>
 258:	30052073          	csrs	mstatus,a0
 25c:	00000297          	auipc	t0,0x0
 260:	04428293          	addi	t0,t0,68 # 2a0 <_run_test>
 264:	34129073          	csrw	mepc,t0
 268:	f1402573          	csrr	a0,mhartid
 26c:	30200073          	mret
	...

Disassembly of section .text:

000002a0 <_run_test>:
 2a0:	00000417          	auipc	s0,0x0
 2a4:	22040413          	addi	s0,s0,544 # 4c0 <begin_signature>
 2a8:	00400493          	li	s1,4
 2ac:	00200e13          	li	t3,2
 2b0:	00000397          	auipc	t2,0x0
 2b4:	01c38393          	addi	t2,t2,28 # 2cc <_run_test+0x2c>
 2b8:	00140313          	addi	t1,s0,1
 2bc:	00141303          	lh	t1,1(s0)
 2c0:	ffffc3b7          	lui	t2,0xffffc
 2c4:	bcc38393          	addi	t2,t2,-1076 # ffffbbcc <_gp+0xffffad84>
 2c8:	14731e63          	bne	t1,t2,424 <fail>
 2cc:	00300e13          	li	t3,3
 2d0:	00000397          	auipc	t2,0x0
 2d4:	01c38393          	addi	t2,t2,28 # 2ec <_run_test+0x4c>
 2d8:	00140313          	addi	t1,s0,1
 2dc:	00145303          	lhu	t1,1(s0)
 2e0:	0000c3b7          	lui	t2,0xc
 2e4:	bcc38393          	addi	t2,t2,-1076 # bbcc <_gp+0xad84>
 2e8:	12731e63          	bne	t1,t2,424 <fail>
 2ec:	00400e13          	li	t3,4
 2f0:	00000397          	auipc	t2,0x0
 2f4:	01c38393          	addi	t2,t2,28 # 30c <_run_test+0x6c>
 2f8:	00140313          	addi	t1,s0,1
 2fc:	00142303          	lw	t1,1(s0)
 300:	99aac3b7          	lui	t2,0x99aac
 304:	bcc38393          	addi	t2,t2,-1076 # 99aabbcc <_gp+0x99aaad84>
 308:	10731e63          	bne	t1,t2,424 <fail>
 30c:	00500e13          	li	t3,5
 310:	00000397          	auipc	t2,0x0
 314:	01c38393          	addi	t2,t2,28 # 32c <_run_test+0x8c>
 318:	00240313          	addi	t1,s0,2
 31c:	00242303          	lw	t1,2(s0)
 320:	8899b3b7          	lui	t2,0x8899b
 324:	abb38393          	addi	t2,t2,-1349 # 8899aabb <_gp+0x88999c73>
 328:	0e731e63          	bne	t1,t2,424 <fail>
 32c:	00600e13          	li	t3,6
 330:	00000397          	auipc	t2,0x0
 334:	01c38393          	addi	t2,t2,28 # 34c <_run_test+0xac>
 338:	00340313          	addi	t1,s0,3
 33c:	00342303          	lw	t1,3(s0)
 340:	7788a3b7          	lui	t2,0x7788a
 344:	9aa38393          	addi	t2,t2,-1622 # 778899aa <_gp+0x77888b62>
 348:	0c731e63          	bne	t1,t2,424 <fail>
 34c:	00600493          	li	s1,6
 350:	01600e13          	li	t3,22
 354:	00000397          	auipc	t2,0x0
 358:	03038393          	addi	t2,t2,48 # 384 <_run_test+0xe4>
 35c:	00140313          	addi	t1,s0,1
 360:	000410a3          	sh	zero,1(s0)
 364:	00040303          	lb	t1,0(s0)
 368:	0a030e63          	beqz	t1,424 <fail>
 36c:	00340303          	lb	t1,3(s0)
 370:	0a030a63          	beqz	t1,424 <fail>
 374:	00140303          	lb	t1,1(s0)
 378:	0a031663          	bnez	t1,424 <fail>
 37c:	00240303          	lb	t1,2(s0)
 380:	0a031263          	bnez	t1,424 <fail>
 384:	01700e13          	li	t3,23
 388:	00000397          	auipc	t2,0x0
 38c:	03038393          	addi	t2,t2,48 # 3b8 <_run_test+0x118>
 390:	00540313          	addi	t1,s0,5
 394:	000422a3          	sw	zero,5(s0)
 398:	00440303          	lb	t1,4(s0)
 39c:	08030463          	beqz	t1,424 <fail>
 3a0:	00940303          	lb	t1,9(s0)
 3a4:	08030063          	beqz	t1,424 <fail>
 3a8:	00540303          	lb	t1,5(s0)
 3ac:	06031c63          	bnez	t1,424 <fail>
 3b0:	00840303          	lb	t1,8(s0)
 3b4:	06031863          	bnez	t1,424 <fail>
 3b8:	01800e13          	li	t3,24
 3bc:	00000397          	auipc	t2,0x0
 3c0:	03038393          	addi	t2,t2,48 # 3ec <_run_test+0x14c>
 3c4:	00a40313          	addi	t1,s0,10
 3c8:	00042523          	sw	zero,10(s0)
 3cc:	00940303          	lb	t1,9(s0)
 3d0:	04030a63          	beqz	t1,424 <fail>
 3d4:	00e40303          	lb	t1,14(s0)
 3d8:	04030663          	beqz	t1,424 <fail>
 3dc:	00a40303          	lb	t1,10(s0)
 3e0:	04031263          	bnez	t1,424 <fail>
 3e4:	00d40303          	lb	t1,13(s0)
 3e8:	02031e63          	bnez	t1,424 <fail>
 3ec:	01900e13          	li	t3,25
 3f0:	00000397          	auipc	t2,0x0
 3f4:	03038393          	addi	t2,t2,48 # 420 <STACK_SIZE+0x20>
 3f8:	00f40313          	addi	t1,s0,15
 3fc:	000427a3          	sw	zero,15(s0)
 400:	00e40303          	lb	t1,14(s0)
 404:	02030063          	beqz	t1,424 <fail>
 408:	01340303          	lb	t1,19(s0)
 40c:	00030c63          	beqz	t1,424 <fail>
 410:	00f40303          	lb	t1,15(s0)
 414:	00031863          	bnez	t1,424 <fail>
 418:	01240303          	lb	t1,18(s0)
 41c:	00031463          	bnez	t1,424 <fail>
 420:	01c01a63          	bne	zero,t3,434 <pass>

00000424 <fail>:
 424:	0ff0000f          	fence
 428:	000e0593          	mv	a1,t3
 42c:	00100513          	li	a0,1
 430:	00000073          	ecall

00000434 <pass>:
 434:	0ff0000f          	fence
 438:	000e0593          	mv	a1,t3
 43c:	00000513          	li	a0,0
 440:	00000073          	ecall
 444:	00000013          	nop

00000448 <mtvec_handler>:
 448:	342022f3          	csrr	t0,mcause
 44c:	fc929ce3          	bne	t0,s1,424 <fail>
 450:	343022f3          	csrr	t0,mbadaddr
 454:	fc6298e3          	bne	t0,t1,424 <fail>
 458:	00028283          	lb	t0,0(t0)
 45c:	fc0284e3          	beqz	t0,424 <fail>
 460:	34139073          	csrw	mepc,t2
 464:	30200073          	mret

00000468 <ecall>:
 468:	00000073          	ecall
	...

00000480 <sc_exit>:
 480:	c75ff06f          	j	f4 <SIM_EXIT>
 484:	00000013          	nop
 488:	00000013          	nop
 48c:	00000013          	nop
 490:	00000013          	nop
 494:	00000013          	nop
 498:	00000013          	nop
 49c:	00000013          	nop
	...

Disassembly of section .tohost:

00000600 <tohost>:
	...

00000640 <fromhost>:
	...
