
/media/sf_virtualbox_shared/scr1_opensource/build/ma_fetch.elf:     file format elf32-littleriscv


Disassembly of section .text.init:

00000000 <SIM_EXIT-0xf4>:
	...

000000f4 <SIM_EXIT>:
  f4:	00000013          	nop

000000f8 <SIM_STOP>:
  f8:	0000006f          	j	f8 <SIM_STOP>
  fc:	ffff                	0xffff
  fe:	ffff                	0xffff
	...

000001c0 <trap_vector>:
 1c0:	34202f73          	csrr	t5,mcause
 1c4:	4fa1                	li	t6,8
 1c6:	03ff0563          	beq	t5,t6,1f0 <_report>
 1ca:	4fa5                	li	t6,9
 1cc:	03ff0263          	beq	t5,t6,1f0 <_report>
 1d0:	4fad                	li	t6,11
 1d2:	01ff0f63          	beq	t5,t6,1f0 <_report>
 1d6:	00000f17          	auipc	t5,0x0
 1da:	142f0f13          	addi	t5,t5,322 # 318 <mtvec_handler>
 1de:	000f0363          	beqz	t5,1e4 <trap_vector+0x24>
 1e2:	8f02                	jr	t5
 1e4:	34202f73          	csrr	t5,mcause
 1e8:	000f5363          	bgez	t5,1ee <handle_exception>
 1ec:	a009                	j	1ee <handle_exception>

000001ee <handle_exception>:
 1ee:	4505                	li	a0,1

000001f0 <_report>:
 1f0:	1700006f          	j	360 <sc_exit>
 1f4:	00000013          	nop
 1f8:	00000013          	nop
 1fc:	00000013          	nop

00000200 <_start>:
 200:	f1402573          	csrr	a0,mhartid
 204:	e101                	bnez	a0,204 <_start+0x4>
 206:	4e01                	li	t3,0
 208:	00000297          	auipc	t0,0x0
 20c:	fb828293          	addi	t0,t0,-72 # 1c0 <trap_vector>
 210:	30529073          	csrw	mtvec,t0
 214:	4505                	li	a0,1
 216:	057e                	slli	a0,a0,0x1f
 218:	00054863          	bltz	a0,228 <_start+0x28>
 21c:	0ff0000f          	fence
 220:	85f2                	mv	a1,t3
 222:	4501                	li	a0,0
 224:	00000073          	ecall
 228:	00000297          	auipc	t0,0x0
 22c:	dd828293          	addi	t0,t0,-552 # 0 <CL_SIZE-0x20>
 230:	00028e63          	beqz	t0,24c <_start+0x4c>
 234:	10529073          	csrw	stvec,t0
 238:	0000b2b7          	lui	t0,0xb
 23c:	10928293          	addi	t0,t0,265 # b109 <_gp+0xa501>
 240:	30229073          	csrw	medeleg,t0
 244:	30202373          	csrr	t1,medeleg
 248:	fa6293e3          	bne	t0,t1,1ee <handle_exception>
 24c:	30005073          	csrwi	mstatus,0
 250:	00002537          	lui	a0,0x2
 254:	80050513          	addi	a0,a0,-2048 # 1800 <_gp+0xbf8>
 258:	30052073          	csrs	mstatus,a0
 25c:	00000297          	auipc	t0,0x0
 260:	04428293          	addi	t0,t0,68 # 2a0 <_run_test>
 264:	34129073          	csrw	mepc,t0
 268:	f1402573          	csrr	a0,mhartid
 26c:	30200073          	mret
	...

Disassembly of section .text:

000002a0 <_run_test>:
 2a0:	00200e13          	li	t3,2
 2a4:	00000313          	li	t1,0
 2a8:	00000297          	auipc	t0,0x0
 2ac:	00c28293          	addi	t0,t0,12 # 2b4 <_run_test+0x14>
 2b0:	00228367          	jalr	t1,2(t0)
 2b4:	a011                	j	2b8 <_run_test+0x18>
 2b6:	a019                	j	2bc <_run_test+0x1c>
 2b8:	0400006f          	j	2f8 <fail>
 2bc:	00300e13          	li	t3,3
 2c0:	00000297          	auipc	t0,0x0
 2c4:	00c28293          	addi	t0,t0,12 # 2cc <_run_test+0x2c>
 2c8:	00128367          	jalr	t1,1(t0)
 2cc:	0080006f          	j	2d4 <_run_test+0x34>
 2d0:	0280006f          	j	2f8 <fail>
 2d4:	00400e13          	li	t3,4
 2d8:	00000313          	li	t1,0
 2dc:	00000297          	auipc	t0,0x0
 2e0:	00c28293          	addi	t0,t0,12 # 2e8 <_run_test+0x48>
 2e4:	00328367          	jalr	t1,3(t0)
 2e8:	a011                	j	2ec <_run_test+0x4c>
 2ea:	a019                	j	2f0 <_run_test+0x50>
 2ec:	00c0006f          	j	2f8 <fail>
 2f0:	0180006f          	j	308 <pass>
 2f4:	01c01a63          	bne	zero,t3,308 <pass>

000002f8 <fail>:
 2f8:	0ff0000f          	fence
 2fc:	000e0593          	mv	a1,t3
 300:	00100513          	li	a0,1
 304:	00000073          	ecall

00000308 <pass>:
 308:	0ff0000f          	fence
 30c:	000e0593          	mv	a1,t3
 310:	00000513          	li	a0,0
 314:	00000073          	ecall

00000318 <mtvec_handler>:
 318:	00200513          	li	a0,2
 31c:	00ae0863          	beq	t3,a0,32c <mtvec_handler+0x14>
 320:	00400513          	li	a0,4
 324:	00ae0463          	beq	t3,a0,32c <mtvec_handler+0x14>
 328:	fd1ff06f          	j	2f8 <fail>
 32c:	fc0316e3          	bnez	t1,2f8 <fail>
 330:	00000593          	li	a1,0
 334:	34202573          	csrr	a0,mcause
 338:	fcb510e3          	bne	a0,a1,2f8 <fail>
 33c:	341025f3          	csrr	a1,mepc
 340:	ffc28293          	addi	t0,t0,-4
 344:	fab29ae3          	bne	t0,a1,2f8 <fail>
 348:	00c58593          	addi	a1,a1,12
 34c:	34159073          	csrw	mepc,a1
 350:	30200073          	mret

00000354 <ecall>:
 354:	00000073          	ecall
	...

00000360 <sc_exit>:
 360:	d95ff06f          	j	f4 <SIM_EXIT>
 364:	00000013          	nop
 368:	00000013          	nop
 36c:	00000013          	nop
 370:	00000013          	nop
 374:	00000013          	nop
 378:	00000013          	nop
 37c:	00000013          	nop
	...

Disassembly of section .tohost:

000003c0 <tohost>:
	...

00000400 <fromhost>:
	...
