
/media/sf_virtualbox_shared/scr1_opensource/build/rvc.elf:     file format elf32-littleriscv


Disassembly of section .text.init:

00000000 <SIM_EXIT-0xf4>:
	...

000000f4 <SIM_EXIT>:
  f4:	00000013          	nop

000000f8 <SIM_STOP>:
  f8:	0000006f          	j	f8 <SIM_STOP>
  fc:	ffff                	0xffff
  fe:	ffff                	0xffff
	...

000001c0 <trap_vector>:
 1c0:	34202f73          	csrr	t5,mcause
 1c4:	4fa1                	li	t6,8
 1c6:	03ff0563          	beq	t5,t6,1f0 <_report>
 1ca:	4fa5                	li	t6,9
 1cc:	03ff0263          	beq	t5,t6,1f0 <_report>
 1d0:	4fad                	li	t6,11
 1d2:	01ff0f63          	beq	t5,t6,1f0 <_report>
 1d6:	00000f17          	auipc	t5,0x0
 1da:	e2af0f13          	addi	t5,t5,-470 # 0 <CL_SIZE-0x20>
 1de:	000f0363          	beqz	t5,1e4 <trap_vector+0x24>
 1e2:	8f02                	jr	t5
 1e4:	34202f73          	csrr	t5,mcause
 1e8:	000f5363          	bgez	t5,1ee <handle_exception>
 1ec:	a009                	j	1ee <handle_exception>

000001ee <handle_exception>:
 1ee:	4505                	li	a0,1

000001f0 <_report>:
 1f0:	5f10306f          	j	3fe0 <sc_exit>
 1f4:	00000013          	nop
 1f8:	00000013          	nop
 1fc:	00000013          	nop

00000200 <_start>:
 200:	f1402573          	csrr	a0,mhartid
 204:	e101                	bnez	a0,204 <_start+0x4>
 206:	4e01                	li	t3,0
 208:	00000297          	auipc	t0,0x0
 20c:	fb828293          	addi	t0,t0,-72 # 1c0 <trap_vector>
 210:	30529073          	csrw	mtvec,t0
 214:	4505                	li	a0,1
 216:	057e                	slli	a0,a0,0x1f
 218:	00054863          	bltz	a0,228 <_start+0x28>
 21c:	0ff0000f          	fence
 220:	85f2                	mv	a1,t3
 222:	4501                	li	a0,0
 224:	00000073          	ecall
 228:	00000297          	auipc	t0,0x0
 22c:	dd828293          	addi	t0,t0,-552 # 0 <CL_SIZE-0x20>
 230:	00028e63          	beqz	t0,24c <_start+0x4c>
 234:	10529073          	csrw	stvec,t0
 238:	0000b2b7          	lui	t0,0xb
 23c:	10928293          	addi	t0,t0,265 # b109 <_gp+0x6881>
 240:	30229073          	csrw	medeleg,t0
 244:	30202373          	csrr	t1,medeleg
 248:	fa6293e3          	bne	t0,t1,1ee <handle_exception>
 24c:	30005073          	csrwi	mstatus,0
 250:	00001297          	auipc	t0,0x1
 254:	db028293          	addi	t0,t0,-592 # 1000 <_run_test>
 258:	34129073          	csrw	mepc,t0
 25c:	f1402573          	csrr	a0,mhartid
 260:	30200073          	mret
	...

Disassembly of section .text:

00001000 <_run_test>:
    1000:	00200e13          	li	t3,2
    1004:	29a00593          	li	a1,666
    1008:	00100613          	li	a2,1

0000100c <test_2>:
    100c:	7f30106f          	j	2ffe <data+0x1fee>

00001010 <data>:
    1010:	3210                	fld	fa2,32(a2)
    1012:	7654                	flw	fa3,44(a2)
    1014:	ba98                	fsd	fa4,48(a3)
    1016:	fedc                	fsw	fa5,60(a3)
    1018:	3210                	fld	fa2,32(a2)
    101a:	7654                	flw	fa3,44(a2)
    101c:	ba98                	fsd	fa4,48(a3)
    101e:	fedc                	fsw	fa5,60(a3)
    1020:	00000013          	nop
    1024:	00000013          	nop
    1028:	00000013          	nop
    102c:	00000013          	nop
    1030:	00000013          	nop
    1034:	00000013          	nop
    1038:	00000013          	nop
    103c:	00000013          	nop
    1040:	00000013          	nop
    1044:	00000013          	nop
    1048:	00000013          	nop
    104c:	00000013          	nop
    1050:	00000013          	nop
    1054:	00000013          	nop
    1058:	00000013          	nop
    105c:	00000013          	nop
    1060:	00000013          	nop
    1064:	00000013          	nop
    1068:	00000013          	nop
    106c:	00000013          	nop
    1070:	00000013          	nop
    1074:	00000013          	nop
    1078:	00000013          	nop
    107c:	00000013          	nop
    1080:	00000013          	nop
    1084:	00000013          	nop
    1088:	00000013          	nop
    108c:	00000013          	nop
    1090:	00000013          	nop
    1094:	00000013          	nop
    1098:	00000013          	nop
    109c:	00000013          	nop
    10a0:	00000013          	nop
    10a4:	00000013          	nop
    10a8:	00000013          	nop
    10ac:	00000013          	nop
    10b0:	00000013          	nop
    10b4:	00000013          	nop
    10b8:	00000013          	nop
    10bc:	00000013          	nop
    10c0:	00000013          	nop
    10c4:	00000013          	nop
    10c8:	00000013          	nop
    10cc:	00000013          	nop
    10d0:	00000013          	nop
    10d4:	00000013          	nop
    10d8:	00000013          	nop
    10dc:	00000013          	nop
    10e0:	00000013          	nop
    10e4:	00000013          	nop
    10e8:	00000013          	nop
    10ec:	00000013          	nop
    10f0:	00000013          	nop
    10f4:	00000013          	nop
    10f8:	00000013          	nop
    10fc:	00000013          	nop
    1100:	00000013          	nop
    1104:	00000013          	nop
    1108:	00000013          	nop
    110c:	00000013          	nop
    1110:	00000013          	nop
    1114:	00000013          	nop
    1118:	00000013          	nop
    111c:	00000013          	nop
    1120:	00000013          	nop
    1124:	00000013          	nop
    1128:	00000013          	nop
    112c:	00000013          	nop
    1130:	00000013          	nop
    1134:	00000013          	nop
    1138:	00000013          	nop
    113c:	00000013          	nop
    1140:	00000013          	nop
    1144:	00000013          	nop
    1148:	00000013          	nop
    114c:	00000013          	nop
    1150:	00000013          	nop
    1154:	00000013          	nop
    1158:	00000013          	nop
    115c:	00000013          	nop
    1160:	00000013          	nop
    1164:	00000013          	nop
    1168:	00000013          	nop
    116c:	00000013          	nop
    1170:	00000013          	nop
    1174:	00000013          	nop
    1178:	00000013          	nop
    117c:	00000013          	nop
    1180:	00000013          	nop
    1184:	00000013          	nop
    1188:	00000013          	nop
    118c:	00000013          	nop
    1190:	00000013          	nop
    1194:	00000013          	nop
    1198:	00000013          	nop
    119c:	00000013          	nop
    11a0:	00000013          	nop
    11a4:	00000013          	nop
    11a8:	00000013          	nop
    11ac:	00000013          	nop
    11b0:	00000013          	nop
    11b4:	00000013          	nop
    11b8:	00000013          	nop
    11bc:	00000013          	nop
    11c0:	00000013          	nop
    11c4:	00000013          	nop
    11c8:	00000013          	nop
    11cc:	00000013          	nop
    11d0:	00000013          	nop
    11d4:	00000013          	nop
    11d8:	00000013          	nop
    11dc:	00000013          	nop
    11e0:	00000013          	nop
    11e4:	00000013          	nop
    11e8:	00000013          	nop
    11ec:	00000013          	nop
    11f0:	00000013          	nop
    11f4:	00000013          	nop
    11f8:	00000013          	nop
    11fc:	00000013          	nop
    1200:	00000013          	nop
    1204:	00000013          	nop
    1208:	00000013          	nop
    120c:	00000013          	nop
    1210:	00000013          	nop
    1214:	00000013          	nop
    1218:	00000013          	nop
    121c:	00000013          	nop
    1220:	00000013          	nop
    1224:	00000013          	nop
    1228:	00000013          	nop
    122c:	00000013          	nop
    1230:	00000013          	nop
    1234:	00000013          	nop
    1238:	00000013          	nop
    123c:	00000013          	nop
    1240:	00000013          	nop
    1244:	00000013          	nop
    1248:	00000013          	nop
    124c:	00000013          	nop
    1250:	00000013          	nop
    1254:	00000013          	nop
    1258:	00000013          	nop
    125c:	00000013          	nop
    1260:	00000013          	nop
    1264:	00000013          	nop
    1268:	00000013          	nop
    126c:	00000013          	nop
    1270:	00000013          	nop
    1274:	00000013          	nop
    1278:	00000013          	nop
    127c:	00000013          	nop
    1280:	00000013          	nop
    1284:	00000013          	nop
    1288:	00000013          	nop
    128c:	00000013          	nop
    1290:	00000013          	nop
    1294:	00000013          	nop
    1298:	00000013          	nop
    129c:	00000013          	nop
    12a0:	00000013          	nop
    12a4:	00000013          	nop
    12a8:	00000013          	nop
    12ac:	00000013          	nop
    12b0:	00000013          	nop
    12b4:	00000013          	nop
    12b8:	00000013          	nop
    12bc:	00000013          	nop
    12c0:	00000013          	nop
    12c4:	00000013          	nop
    12c8:	00000013          	nop
    12cc:	00000013          	nop
    12d0:	00000013          	nop
    12d4:	00000013          	nop
    12d8:	00000013          	nop
    12dc:	00000013          	nop
    12e0:	00000013          	nop
    12e4:	00000013          	nop
    12e8:	00000013          	nop
    12ec:	00000013          	nop
    12f0:	00000013          	nop
    12f4:	00000013          	nop
    12f8:	00000013          	nop
    12fc:	00000013          	nop
    1300:	00000013          	nop
    1304:	00000013          	nop
    1308:	00000013          	nop
    130c:	00000013          	nop
    1310:	00000013          	nop
    1314:	00000013          	nop
    1318:	00000013          	nop
    131c:	00000013          	nop
    1320:	00000013          	nop
    1324:	00000013          	nop
    1328:	00000013          	nop
    132c:	00000013          	nop
    1330:	00000013          	nop
    1334:	00000013          	nop
    1338:	00000013          	nop
    133c:	00000013          	nop
    1340:	00000013          	nop
    1344:	00000013          	nop
    1348:	00000013          	nop
    134c:	00000013          	nop
    1350:	00000013          	nop
    1354:	00000013          	nop
    1358:	00000013          	nop
    135c:	00000013          	nop
    1360:	00000013          	nop
    1364:	00000013          	nop
    1368:	00000013          	nop
    136c:	00000013          	nop
    1370:	00000013          	nop
    1374:	00000013          	nop
    1378:	00000013          	nop
    137c:	00000013          	nop
    1380:	00000013          	nop
    1384:	00000013          	nop
    1388:	00000013          	nop
    138c:	00000013          	nop
    1390:	00000013          	nop
    1394:	00000013          	nop
    1398:	00000013          	nop
    139c:	00000013          	nop
    13a0:	00000013          	nop
    13a4:	00000013          	nop
    13a8:	00000013          	nop
    13ac:	00000013          	nop
    13b0:	00000013          	nop
    13b4:	00000013          	nop
    13b8:	00000013          	nop
    13bc:	00000013          	nop
    13c0:	00000013          	nop
    13c4:	00000013          	nop
    13c8:	00000013          	nop
    13cc:	00000013          	nop
    13d0:	00000013          	nop
    13d4:	00000013          	nop
    13d8:	00000013          	nop
    13dc:	00000013          	nop
    13e0:	00000013          	nop
    13e4:	00000013          	nop
    13e8:	00000013          	nop
    13ec:	00000013          	nop
    13f0:	00000013          	nop
    13f4:	00000013          	nop
    13f8:	00000013          	nop
    13fc:	00000013          	nop
    1400:	00000013          	nop
    1404:	00000013          	nop
    1408:	00000013          	nop
    140c:	00000013          	nop
    1410:	00000013          	nop
    1414:	00000013          	nop
    1418:	00000013          	nop
    141c:	00000013          	nop
    1420:	00000013          	nop
    1424:	00000013          	nop
    1428:	00000013          	nop
    142c:	00000013          	nop
    1430:	00000013          	nop
    1434:	00000013          	nop
    1438:	00000013          	nop
    143c:	00000013          	nop
    1440:	00000013          	nop
    1444:	00000013          	nop
    1448:	00000013          	nop
    144c:	00000013          	nop
    1450:	00000013          	nop
    1454:	00000013          	nop
    1458:	00000013          	nop
    145c:	00000013          	nop
    1460:	00000013          	nop
    1464:	00000013          	nop
    1468:	00000013          	nop
    146c:	00000013          	nop
    1470:	00000013          	nop
    1474:	00000013          	nop
    1478:	00000013          	nop
    147c:	00000013          	nop
    1480:	00000013          	nop
    1484:	00000013          	nop
    1488:	00000013          	nop
    148c:	00000013          	nop
    1490:	00000013          	nop
    1494:	00000013          	nop
    1498:	00000013          	nop
    149c:	00000013          	nop
    14a0:	00000013          	nop
    14a4:	00000013          	nop
    14a8:	00000013          	nop
    14ac:	00000013          	nop
    14b0:	00000013          	nop
    14b4:	00000013          	nop
    14b8:	00000013          	nop
    14bc:	00000013          	nop
    14c0:	00000013          	nop
    14c4:	00000013          	nop
    14c8:	00000013          	nop
    14cc:	00000013          	nop
    14d0:	00000013          	nop
    14d4:	00000013          	nop
    14d8:	00000013          	nop
    14dc:	00000013          	nop
    14e0:	00000013          	nop
    14e4:	00000013          	nop
    14e8:	00000013          	nop
    14ec:	00000013          	nop
    14f0:	00000013          	nop
    14f4:	00000013          	nop
    14f8:	00000013          	nop
    14fc:	00000013          	nop
    1500:	00000013          	nop
    1504:	00000013          	nop
    1508:	00000013          	nop
    150c:	00000013          	nop
    1510:	00000013          	nop
    1514:	00000013          	nop
    1518:	00000013          	nop
    151c:	00000013          	nop
    1520:	00000013          	nop
    1524:	00000013          	nop
    1528:	00000013          	nop
    152c:	00000013          	nop
    1530:	00000013          	nop
    1534:	00000013          	nop
    1538:	00000013          	nop
    153c:	00000013          	nop
    1540:	00000013          	nop
    1544:	00000013          	nop
    1548:	00000013          	nop
    154c:	00000013          	nop
    1550:	00000013          	nop
    1554:	00000013          	nop
    1558:	00000013          	nop
    155c:	00000013          	nop
    1560:	00000013          	nop
    1564:	00000013          	nop
    1568:	00000013          	nop
    156c:	00000013          	nop
    1570:	00000013          	nop
    1574:	00000013          	nop
    1578:	00000013          	nop
    157c:	00000013          	nop
    1580:	00000013          	nop
    1584:	00000013          	nop
    1588:	00000013          	nop
    158c:	00000013          	nop
    1590:	00000013          	nop
    1594:	00000013          	nop
    1598:	00000013          	nop
    159c:	00000013          	nop
    15a0:	00000013          	nop
    15a4:	00000013          	nop
    15a8:	00000013          	nop
    15ac:	00000013          	nop
    15b0:	00000013          	nop
    15b4:	00000013          	nop
    15b8:	00000013          	nop
    15bc:	00000013          	nop
    15c0:	00000013          	nop
    15c4:	00000013          	nop
    15c8:	00000013          	nop
    15cc:	00000013          	nop
    15d0:	00000013          	nop
    15d4:	00000013          	nop
    15d8:	00000013          	nop
    15dc:	00000013          	nop
    15e0:	00000013          	nop
    15e4:	00000013          	nop
    15e8:	00000013          	nop
    15ec:	00000013          	nop
    15f0:	00000013          	nop
    15f4:	00000013          	nop
    15f8:	00000013          	nop
    15fc:	00000013          	nop
    1600:	00000013          	nop
    1604:	00000013          	nop
    1608:	00000013          	nop
    160c:	00000013          	nop
    1610:	00000013          	nop
    1614:	00000013          	nop
    1618:	00000013          	nop
    161c:	00000013          	nop
    1620:	00000013          	nop
    1624:	00000013          	nop
    1628:	00000013          	nop
    162c:	00000013          	nop
    1630:	00000013          	nop
    1634:	00000013          	nop
    1638:	00000013          	nop
    163c:	00000013          	nop
    1640:	00000013          	nop
    1644:	00000013          	nop
    1648:	00000013          	nop
    164c:	00000013          	nop
    1650:	00000013          	nop
    1654:	00000013          	nop
    1658:	00000013          	nop
    165c:	00000013          	nop
    1660:	00000013          	nop
    1664:	00000013          	nop
    1668:	00000013          	nop
    166c:	00000013          	nop
    1670:	00000013          	nop
    1674:	00000013          	nop
    1678:	00000013          	nop
    167c:	00000013          	nop
    1680:	00000013          	nop
    1684:	00000013          	nop
    1688:	00000013          	nop
    168c:	00000013          	nop
    1690:	00000013          	nop
    1694:	00000013          	nop
    1698:	00000013          	nop
    169c:	00000013          	nop
    16a0:	00000013          	nop
    16a4:	00000013          	nop
    16a8:	00000013          	nop
    16ac:	00000013          	nop
    16b0:	00000013          	nop
    16b4:	00000013          	nop
    16b8:	00000013          	nop
    16bc:	00000013          	nop
    16c0:	00000013          	nop
    16c4:	00000013          	nop
    16c8:	00000013          	nop
    16cc:	00000013          	nop
    16d0:	00000013          	nop
    16d4:	00000013          	nop
    16d8:	00000013          	nop
    16dc:	00000013          	nop
    16e0:	00000013          	nop
    16e4:	00000013          	nop
    16e8:	00000013          	nop
    16ec:	00000013          	nop
    16f0:	00000013          	nop
    16f4:	00000013          	nop
    16f8:	00000013          	nop
    16fc:	00000013          	nop
    1700:	00000013          	nop
    1704:	00000013          	nop
    1708:	00000013          	nop
    170c:	00000013          	nop
    1710:	00000013          	nop
    1714:	00000013          	nop
    1718:	00000013          	nop
    171c:	00000013          	nop
    1720:	00000013          	nop
    1724:	00000013          	nop
    1728:	00000013          	nop
    172c:	00000013          	nop
    1730:	00000013          	nop
    1734:	00000013          	nop
    1738:	00000013          	nop
    173c:	00000013          	nop
    1740:	00000013          	nop
    1744:	00000013          	nop
    1748:	00000013          	nop
    174c:	00000013          	nop
    1750:	00000013          	nop
    1754:	00000013          	nop
    1758:	00000013          	nop
    175c:	00000013          	nop
    1760:	00000013          	nop
    1764:	00000013          	nop
    1768:	00000013          	nop
    176c:	00000013          	nop
    1770:	00000013          	nop
    1774:	00000013          	nop
    1778:	00000013          	nop
    177c:	00000013          	nop
    1780:	00000013          	nop
    1784:	00000013          	nop
    1788:	00000013          	nop
    178c:	00000013          	nop
    1790:	00000013          	nop
    1794:	00000013          	nop
    1798:	00000013          	nop
    179c:	00000013          	nop
    17a0:	00000013          	nop
    17a4:	00000013          	nop
    17a8:	00000013          	nop
    17ac:	00000013          	nop
    17b0:	00000013          	nop
    17b4:	00000013          	nop
    17b8:	00000013          	nop
    17bc:	00000013          	nop
    17c0:	00000013          	nop
    17c4:	00000013          	nop
    17c8:	00000013          	nop
    17cc:	00000013          	nop
    17d0:	00000013          	nop
    17d4:	00000013          	nop
    17d8:	00000013          	nop
    17dc:	00000013          	nop
    17e0:	00000013          	nop
    17e4:	00000013          	nop
    17e8:	00000013          	nop
    17ec:	00000013          	nop
    17f0:	00000013          	nop
    17f4:	00000013          	nop
    17f8:	00000013          	nop
    17fc:	00000013          	nop
    1800:	00000013          	nop
    1804:	00000013          	nop
    1808:	00000013          	nop
    180c:	00000013          	nop
    1810:	00000013          	nop
    1814:	00000013          	nop
    1818:	00000013          	nop
    181c:	00000013          	nop
    1820:	00000013          	nop
    1824:	00000013          	nop
    1828:	00000013          	nop
    182c:	00000013          	nop
    1830:	00000013          	nop
    1834:	00000013          	nop
    1838:	00000013          	nop
    183c:	00000013          	nop
    1840:	00000013          	nop
    1844:	00000013          	nop
    1848:	00000013          	nop
    184c:	00000013          	nop
    1850:	00000013          	nop
    1854:	00000013          	nop
    1858:	00000013          	nop
    185c:	00000013          	nop
    1860:	00000013          	nop
    1864:	00000013          	nop
    1868:	00000013          	nop
    186c:	00000013          	nop
    1870:	00000013          	nop
    1874:	00000013          	nop
    1878:	00000013          	nop
    187c:	00000013          	nop
    1880:	00000013          	nop
    1884:	00000013          	nop
    1888:	00000013          	nop
    188c:	00000013          	nop
    1890:	00000013          	nop
    1894:	00000013          	nop
    1898:	00000013          	nop
    189c:	00000013          	nop
    18a0:	00000013          	nop
    18a4:	00000013          	nop
    18a8:	00000013          	nop
    18ac:	00000013          	nop
    18b0:	00000013          	nop
    18b4:	00000013          	nop
    18b8:	00000013          	nop
    18bc:	00000013          	nop
    18c0:	00000013          	nop
    18c4:	00000013          	nop
    18c8:	00000013          	nop
    18cc:	00000013          	nop
    18d0:	00000013          	nop
    18d4:	00000013          	nop
    18d8:	00000013          	nop
    18dc:	00000013          	nop
    18e0:	00000013          	nop
    18e4:	00000013          	nop
    18e8:	00000013          	nop
    18ec:	00000013          	nop
    18f0:	00000013          	nop
    18f4:	00000013          	nop
    18f8:	00000013          	nop
    18fc:	00000013          	nop
    1900:	00000013          	nop
    1904:	00000013          	nop
    1908:	00000013          	nop
    190c:	00000013          	nop
    1910:	00000013          	nop
    1914:	00000013          	nop
    1918:	00000013          	nop
    191c:	00000013          	nop
    1920:	00000013          	nop
    1924:	00000013          	nop
    1928:	00000013          	nop
    192c:	00000013          	nop
    1930:	00000013          	nop
    1934:	00000013          	nop
    1938:	00000013          	nop
    193c:	00000013          	nop
    1940:	00000013          	nop
    1944:	00000013          	nop
    1948:	00000013          	nop
    194c:	00000013          	nop
    1950:	00000013          	nop
    1954:	00000013          	nop
    1958:	00000013          	nop
    195c:	00000013          	nop
    1960:	00000013          	nop
    1964:	00000013          	nop
    1968:	00000013          	nop
    196c:	00000013          	nop
    1970:	00000013          	nop
    1974:	00000013          	nop
    1978:	00000013          	nop
    197c:	00000013          	nop
    1980:	00000013          	nop
    1984:	00000013          	nop
    1988:	00000013          	nop
    198c:	00000013          	nop
    1990:	00000013          	nop
    1994:	00000013          	nop
    1998:	00000013          	nop
    199c:	00000013          	nop
    19a0:	00000013          	nop
    19a4:	00000013          	nop
    19a8:	00000013          	nop
    19ac:	00000013          	nop
    19b0:	00000013          	nop
    19b4:	00000013          	nop
    19b8:	00000013          	nop
    19bc:	00000013          	nop
    19c0:	00000013          	nop
    19c4:	00000013          	nop
    19c8:	00000013          	nop
    19cc:	00000013          	nop
    19d0:	00000013          	nop
    19d4:	00000013          	nop
    19d8:	00000013          	nop
    19dc:	00000013          	nop
    19e0:	00000013          	nop
    19e4:	00000013          	nop
    19e8:	00000013          	nop
    19ec:	00000013          	nop
    19f0:	00000013          	nop
    19f4:	00000013          	nop
    19f8:	00000013          	nop
    19fc:	00000013          	nop
    1a00:	00000013          	nop
    1a04:	00000013          	nop
    1a08:	00000013          	nop
    1a0c:	00000013          	nop
    1a10:	00000013          	nop
    1a14:	00000013          	nop
    1a18:	00000013          	nop
    1a1c:	00000013          	nop
    1a20:	00000013          	nop
    1a24:	00000013          	nop
    1a28:	00000013          	nop
    1a2c:	00000013          	nop
    1a30:	00000013          	nop
    1a34:	00000013          	nop
    1a38:	00000013          	nop
    1a3c:	00000013          	nop
    1a40:	00000013          	nop
    1a44:	00000013          	nop
    1a48:	00000013          	nop
    1a4c:	00000013          	nop
    1a50:	00000013          	nop
    1a54:	00000013          	nop
    1a58:	00000013          	nop
    1a5c:	00000013          	nop
    1a60:	00000013          	nop
    1a64:	00000013          	nop
    1a68:	00000013          	nop
    1a6c:	00000013          	nop
    1a70:	00000013          	nop
    1a74:	00000013          	nop
    1a78:	00000013          	nop
    1a7c:	00000013          	nop
    1a80:	00000013          	nop
    1a84:	00000013          	nop
    1a88:	00000013          	nop
    1a8c:	00000013          	nop
    1a90:	00000013          	nop
    1a94:	00000013          	nop
    1a98:	00000013          	nop
    1a9c:	00000013          	nop
    1aa0:	00000013          	nop
    1aa4:	00000013          	nop
    1aa8:	00000013          	nop
    1aac:	00000013          	nop
    1ab0:	00000013          	nop
    1ab4:	00000013          	nop
    1ab8:	00000013          	nop
    1abc:	00000013          	nop
    1ac0:	00000013          	nop
    1ac4:	00000013          	nop
    1ac8:	00000013          	nop
    1acc:	00000013          	nop
    1ad0:	00000013          	nop
    1ad4:	00000013          	nop
    1ad8:	00000013          	nop
    1adc:	00000013          	nop
    1ae0:	00000013          	nop
    1ae4:	00000013          	nop
    1ae8:	00000013          	nop
    1aec:	00000013          	nop
    1af0:	00000013          	nop
    1af4:	00000013          	nop
    1af8:	00000013          	nop
    1afc:	00000013          	nop
    1b00:	00000013          	nop
    1b04:	00000013          	nop
    1b08:	00000013          	nop
    1b0c:	00000013          	nop
    1b10:	00000013          	nop
    1b14:	00000013          	nop
    1b18:	00000013          	nop
    1b1c:	00000013          	nop
    1b20:	00000013          	nop
    1b24:	00000013          	nop
    1b28:	00000013          	nop
    1b2c:	00000013          	nop
    1b30:	00000013          	nop
    1b34:	00000013          	nop
    1b38:	00000013          	nop
    1b3c:	00000013          	nop
    1b40:	00000013          	nop
    1b44:	00000013          	nop
    1b48:	00000013          	nop
    1b4c:	00000013          	nop
    1b50:	00000013          	nop
    1b54:	00000013          	nop
    1b58:	00000013          	nop
    1b5c:	00000013          	nop
    1b60:	00000013          	nop
    1b64:	00000013          	nop
    1b68:	00000013          	nop
    1b6c:	00000013          	nop
    1b70:	00000013          	nop
    1b74:	00000013          	nop
    1b78:	00000013          	nop
    1b7c:	00000013          	nop
    1b80:	00000013          	nop
    1b84:	00000013          	nop
    1b88:	00000013          	nop
    1b8c:	00000013          	nop
    1b90:	00000013          	nop
    1b94:	00000013          	nop
    1b98:	00000013          	nop
    1b9c:	00000013          	nop
    1ba0:	00000013          	nop
    1ba4:	00000013          	nop
    1ba8:	00000013          	nop
    1bac:	00000013          	nop
    1bb0:	00000013          	nop
    1bb4:	00000013          	nop
    1bb8:	00000013          	nop
    1bbc:	00000013          	nop
    1bc0:	00000013          	nop
    1bc4:	00000013          	nop
    1bc8:	00000013          	nop
    1bcc:	00000013          	nop
    1bd0:	00000013          	nop
    1bd4:	00000013          	nop
    1bd8:	00000013          	nop
    1bdc:	00000013          	nop
    1be0:	00000013          	nop
    1be4:	00000013          	nop
    1be8:	00000013          	nop
    1bec:	00000013          	nop
    1bf0:	00000013          	nop
    1bf4:	00000013          	nop
    1bf8:	00000013          	nop
    1bfc:	00000013          	nop
    1c00:	00000013          	nop
    1c04:	00000013          	nop
    1c08:	00000013          	nop
    1c0c:	00000013          	nop
    1c10:	00000013          	nop
    1c14:	00000013          	nop
    1c18:	00000013          	nop
    1c1c:	00000013          	nop
    1c20:	00000013          	nop
    1c24:	00000013          	nop
    1c28:	00000013          	nop
    1c2c:	00000013          	nop
    1c30:	00000013          	nop
    1c34:	00000013          	nop
    1c38:	00000013          	nop
    1c3c:	00000013          	nop
    1c40:	00000013          	nop
    1c44:	00000013          	nop
    1c48:	00000013          	nop
    1c4c:	00000013          	nop
    1c50:	00000013          	nop
    1c54:	00000013          	nop
    1c58:	00000013          	nop
    1c5c:	00000013          	nop
    1c60:	00000013          	nop
    1c64:	00000013          	nop
    1c68:	00000013          	nop
    1c6c:	00000013          	nop
    1c70:	00000013          	nop
    1c74:	00000013          	nop
    1c78:	00000013          	nop
    1c7c:	00000013          	nop
    1c80:	00000013          	nop
    1c84:	00000013          	nop
    1c88:	00000013          	nop
    1c8c:	00000013          	nop
    1c90:	00000013          	nop
    1c94:	00000013          	nop
    1c98:	00000013          	nop
    1c9c:	00000013          	nop
    1ca0:	00000013          	nop
    1ca4:	00000013          	nop
    1ca8:	00000013          	nop
    1cac:	00000013          	nop
    1cb0:	00000013          	nop
    1cb4:	00000013          	nop
    1cb8:	00000013          	nop
    1cbc:	00000013          	nop
    1cc0:	00000013          	nop
    1cc4:	00000013          	nop
    1cc8:	00000013          	nop
    1ccc:	00000013          	nop
    1cd0:	00000013          	nop
    1cd4:	00000013          	nop
    1cd8:	00000013          	nop
    1cdc:	00000013          	nop
    1ce0:	00000013          	nop
    1ce4:	00000013          	nop
    1ce8:	00000013          	nop
    1cec:	00000013          	nop
    1cf0:	00000013          	nop
    1cf4:	00000013          	nop
    1cf8:	00000013          	nop
    1cfc:	00000013          	nop
    1d00:	00000013          	nop
    1d04:	00000013          	nop
    1d08:	00000013          	nop
    1d0c:	00000013          	nop
    1d10:	00000013          	nop
    1d14:	00000013          	nop
    1d18:	00000013          	nop
    1d1c:	00000013          	nop
    1d20:	00000013          	nop
    1d24:	00000013          	nop
    1d28:	00000013          	nop
    1d2c:	00000013          	nop
    1d30:	00000013          	nop
    1d34:	00000013          	nop
    1d38:	00000013          	nop
    1d3c:	00000013          	nop
    1d40:	00000013          	nop
    1d44:	00000013          	nop
    1d48:	00000013          	nop
    1d4c:	00000013          	nop
    1d50:	00000013          	nop
    1d54:	00000013          	nop
    1d58:	00000013          	nop
    1d5c:	00000013          	nop
    1d60:	00000013          	nop
    1d64:	00000013          	nop
    1d68:	00000013          	nop
    1d6c:	00000013          	nop
    1d70:	00000013          	nop
    1d74:	00000013          	nop
    1d78:	00000013          	nop
    1d7c:	00000013          	nop
    1d80:	00000013          	nop
    1d84:	00000013          	nop
    1d88:	00000013          	nop
    1d8c:	00000013          	nop
    1d90:	00000013          	nop
    1d94:	00000013          	nop
    1d98:	00000013          	nop
    1d9c:	00000013          	nop
    1da0:	00000013          	nop
    1da4:	00000013          	nop
    1da8:	00000013          	nop
    1dac:	00000013          	nop
    1db0:	00000013          	nop
    1db4:	00000013          	nop
    1db8:	00000013          	nop
    1dbc:	00000013          	nop
    1dc0:	00000013          	nop
    1dc4:	00000013          	nop
    1dc8:	00000013          	nop
    1dcc:	00000013          	nop
    1dd0:	00000013          	nop
    1dd4:	00000013          	nop
    1dd8:	00000013          	nop
    1ddc:	00000013          	nop
    1de0:	00000013          	nop
    1de4:	00000013          	nop
    1de8:	00000013          	nop
    1dec:	00000013          	nop
    1df0:	00000013          	nop
    1df4:	00000013          	nop
    1df8:	00000013          	nop
    1dfc:	00000013          	nop
    1e00:	00000013          	nop
    1e04:	00000013          	nop
    1e08:	00000013          	nop
    1e0c:	00000013          	nop
    1e10:	00000013          	nop
    1e14:	00000013          	nop
    1e18:	00000013          	nop
    1e1c:	00000013          	nop
    1e20:	00000013          	nop
    1e24:	00000013          	nop
    1e28:	00000013          	nop
    1e2c:	00000013          	nop
    1e30:	00000013          	nop
    1e34:	00000013          	nop
    1e38:	00000013          	nop
    1e3c:	00000013          	nop
    1e40:	00000013          	nop
    1e44:	00000013          	nop
    1e48:	00000013          	nop
    1e4c:	00000013          	nop
    1e50:	00000013          	nop
    1e54:	00000013          	nop
    1e58:	00000013          	nop
    1e5c:	00000013          	nop
    1e60:	00000013          	nop
    1e64:	00000013          	nop
    1e68:	00000013          	nop
    1e6c:	00000013          	nop
    1e70:	00000013          	nop
    1e74:	00000013          	nop
    1e78:	00000013          	nop
    1e7c:	00000013          	nop
    1e80:	00000013          	nop
    1e84:	00000013          	nop
    1e88:	00000013          	nop
    1e8c:	00000013          	nop
    1e90:	00000013          	nop
    1e94:	00000013          	nop
    1e98:	00000013          	nop
    1e9c:	00000013          	nop
    1ea0:	00000013          	nop
    1ea4:	00000013          	nop
    1ea8:	00000013          	nop
    1eac:	00000013          	nop
    1eb0:	00000013          	nop
    1eb4:	00000013          	nop
    1eb8:	00000013          	nop
    1ebc:	00000013          	nop
    1ec0:	00000013          	nop
    1ec4:	00000013          	nop
    1ec8:	00000013          	nop
    1ecc:	00000013          	nop
    1ed0:	00000013          	nop
    1ed4:	00000013          	nop
    1ed8:	00000013          	nop
    1edc:	00000013          	nop
    1ee0:	00000013          	nop
    1ee4:	00000013          	nop
    1ee8:	00000013          	nop
    1eec:	00000013          	nop
    1ef0:	00000013          	nop
    1ef4:	00000013          	nop
    1ef8:	00000013          	nop
    1efc:	00000013          	nop
    1f00:	00000013          	nop
    1f04:	00000013          	nop
    1f08:	00000013          	nop
    1f0c:	00000013          	nop
    1f10:	00000013          	nop
    1f14:	00000013          	nop
    1f18:	00000013          	nop
    1f1c:	00000013          	nop
    1f20:	00000013          	nop
    1f24:	00000013          	nop
    1f28:	00000013          	nop
    1f2c:	00000013          	nop
    1f30:	00000013          	nop
    1f34:	00000013          	nop
    1f38:	00000013          	nop
    1f3c:	00000013          	nop
    1f40:	00000013          	nop
    1f44:	00000013          	nop
    1f48:	00000013          	nop
    1f4c:	00000013          	nop
    1f50:	00000013          	nop
    1f54:	00000013          	nop
    1f58:	00000013          	nop
    1f5c:	00000013          	nop
    1f60:	00000013          	nop
    1f64:	00000013          	nop
    1f68:	00000013          	nop
    1f6c:	00000013          	nop
    1f70:	00000013          	nop
    1f74:	00000013          	nop
    1f78:	00000013          	nop
    1f7c:	00000013          	nop
    1f80:	00000013          	nop
    1f84:	00000013          	nop
    1f88:	00000013          	nop
    1f8c:	00000013          	nop
    1f90:	00000013          	nop
    1f94:	00000013          	nop
    1f98:	00000013          	nop
    1f9c:	00000013          	nop
    1fa0:	00000013          	nop
    1fa4:	00000013          	nop
    1fa8:	00000013          	nop
    1fac:	00000013          	nop
    1fb0:	00000013          	nop
    1fb4:	00000013          	nop
    1fb8:	00000013          	nop
    1fbc:	00000013          	nop
    1fc0:	00000013          	nop
    1fc4:	00000013          	nop
    1fc8:	00000013          	nop
    1fcc:	00000013          	nop
    1fd0:	00000013          	nop
    1fd4:	00000013          	nop
    1fd8:	00000013          	nop
    1fdc:	00000013          	nop
    1fe0:	00000013          	nop
    1fe4:	00000013          	nop
    1fe8:	00000013          	nop
    1fec:	00000013          	nop
    1ff0:	00000013          	nop
    1ff4:	00000013          	nop
    1ff8:	00000013          	nop
    1ffc:	00000013          	nop
	...
    2ffc:	0000                	unimp
    2ffe:	00160593          	addi	a1,a2,1
    3002:	00200e93          	li	t4,2
    3006:	00200e13          	li	t3,2
    300a:	23d59063          	bne	a1,t4,322a <fail>
    300e:	00001137          	lui	sp,0x1
    3012:	23410113          	addi	sp,sp,564 # 1234 <data+0x224>

00003016 <test_3>:
    3016:	1fe8                	addi	a0,sp,1020
    3018:	00001eb7          	lui	t4,0x1
    301c:	630e8e93          	addi	t4,t4,1584 # 1630 <data+0x620>
    3020:	00300e13          	li	t3,3
    3024:	21d51363          	bne	a0,t4,322a <fail>

00003028 <test_4>:
    3028:	617d                	addi	sp,sp,496
    302a:	00001eb7          	lui	t4,0x1
    302e:	424e8e93          	addi	t4,t4,1060 # 1424 <data+0x414>
    3032:	00400e13          	li	t3,4
    3036:	1fd11a63          	bne	sp,t4,322a <fail>

0000303a <test_5>:
    303a:	7101                	addi	sp,sp,-512
    303c:	00001eb7          	lui	t4,0x1
    3040:	224e8e93          	addi	t4,t4,548 # 1224 <data+0x214>
    3044:	00500e13          	li	t3,5
    3048:	1fd11163          	bne	sp,t4,322a <fail>
    304c:	ffffe597          	auipc	a1,0xffffe
    3050:	fc458593          	addi	a1,a1,-60 # 1010 <data>

00003054 <test_6>:
    3054:	41c8                	lw	a0,4(a1)
    3056:	0505                	addi	a0,a0,1
    3058:	c1c8                	sw	a0,4(a1)
    305a:	41d0                	lw	a2,4(a1)
    305c:	fedcceb7          	lui	t4,0xfedcc
    3060:	a99e8e93          	addi	t4,t4,-1383 # fedcba99 <_gp+0xfedc7211>
    3064:	00600e13          	li	t3,6
    3068:	1dd61163          	bne	a2,t4,322a <fail>

0000306c <test_8>:
    306c:	00106513          	ori	a0,zero,1
    3070:	1541                	addi	a0,a0,-16
    3072:	ff100e93          	li	t4,-15
    3076:	00800e13          	li	t3,8
    307a:	1bd51863          	bne	a0,t4,322a <fail>

0000307e <test_9>:
    307e:	00106793          	ori	a5,zero,1
    3082:	57c1                	li	a5,-16
    3084:	ff000e93          	li	t4,-16
    3088:	00900e13          	li	t3,9
    308c:	19d79f63          	bne	a5,t4,322a <fail>

00003090 <test_11>:
    3090:	7405                	lui	s0,0xfffe1
    3092:	8431                	srai	s0,s0,0xc
    3094:	fe100e93          	li	t4,-31
    3098:	00b00e13          	li	t3,11
    309c:	19d41763          	bne	s0,t4,322a <fail>

000030a0 <test_12>:
    30a0:	7405                	lui	s0,0xfffe1
    30a2:	8031                	srli	s0,s0,0xc
    30a4:	00100eb7          	lui	t4,0x100
    30a8:	fe1e8e93          	addi	t4,t4,-31 # fffe1 <_gp+0xfb759>
    30ac:	00c00e13          	li	t3,12
    30b0:	17d41d63          	bne	s0,t4,322a <fail>

000030b4 <test_14>:
    30b4:	5479                	li	s0,-2
    30b6:	983d                	andi	s0,s0,-17
    30b8:	fee00e93          	li	t4,-18
    30bc:	00e00e13          	li	t3,14
    30c0:	17d41563          	bne	s0,t4,322a <fail>

000030c4 <test_15>:
    30c4:	44d1                	li	s1,20
    30c6:	4519                	li	a0,6
    30c8:	8c89                	sub	s1,s1,a0
    30ca:	00e00e93          	li	t4,14
    30ce:	00f00e13          	li	t3,15
    30d2:	15d49c63          	bne	s1,t4,322a <fail>

000030d6 <test_16>:
    30d6:	44d1                	li	s1,20
    30d8:	4519                	li	a0,6
    30da:	8ca9                	xor	s1,s1,a0
    30dc:	01200e93          	li	t4,18
    30e0:	01000e13          	li	t3,16
    30e4:	15d49363          	bne	s1,t4,322a <fail>

000030e8 <test_17>:
    30e8:	44d1                	li	s1,20
    30ea:	4519                	li	a0,6
    30ec:	8cc9                	or	s1,s1,a0
    30ee:	01600e93          	li	t4,22
    30f2:	01100e13          	li	t3,17
    30f6:	13d49a63          	bne	s1,t4,322a <fail>

000030fa <test_18>:
    30fa:	44d1                	li	s1,20
    30fc:	4519                	li	a0,6
    30fe:	8ce9                	and	s1,s1,a0
    3100:	00400e93          	li	t4,4
    3104:	01200e13          	li	t3,18
    3108:	13d49163          	bne	s1,t4,322a <fail>

0000310c <test_21>:
    310c:	00001437          	lui	s0,0x1
    3110:	23440413          	addi	s0,s0,564 # 1234 <data+0x224>
    3114:	0412                	slli	s0,s0,0x4
    3116:	00012eb7          	lui	t4,0x12
    311a:	340e8e93          	addi	t4,t4,832 # 12340 <_gp+0xdab8>
    311e:	01500e13          	li	t3,21
    3122:	11d41463          	bne	s0,t4,322a <fail>

00003126 <test_30>:
    3126:	4081                	li	ra,0
    3128:	a011                	j	312c <test_30+0x6>
    312a:	a011                	j	312e <test_30+0x8>
    312c:	a011                	j	3130 <test_30+0xa>
    312e:	a8f5                	j	322a <fail>
    3130:	00000e93          	li	t4,0
    3134:	01e00e13          	li	t3,30
    3138:	0fd09963          	bne	ra,t4,322a <fail>

0000313c <test_31>:
    313c:	4501                	li	a0,0
    313e:	c111                	beqz	a0,3142 <test_31+0x6>
    3140:	a011                	j	3144 <test_31+0x8>
    3142:	a011                	j	3146 <test_31+0xa>
    3144:	a0dd                	j	322a <fail>
    3146:	00000e93          	li	t4,0
    314a:	01f00e13          	li	t3,31
    314e:	0dd01e63          	bne	zero,t4,322a <fail>

00003152 <test_32>:
    3152:	4505                	li	a0,1
    3154:	e111                	bnez	a0,3158 <test_32+0x6>
    3156:	a011                	j	315a <test_32+0x8>
    3158:	a011                	j	315c <test_32+0xa>
    315a:	a8c1                	j	322a <fail>
    315c:	00000e93          	li	t4,0
    3160:	02000e13          	li	t3,32
    3164:	0dd01363          	bne	zero,t4,322a <fail>

00003168 <test_33>:
    3168:	4505                	li	a0,1
    316a:	c111                	beqz	a0,316e <test_33+0x6>
    316c:	a011                	j	3170 <test_33+0x8>
    316e:	a875                	j	322a <fail>
    3170:	00000e93          	li	t4,0
    3174:	02100e13          	li	t3,33
    3178:	0bd01963          	bne	zero,t4,322a <fail>

0000317c <test_34>:
    317c:	4501                	li	a0,0
    317e:	e111                	bnez	a0,3182 <test_34+0x6>
    3180:	a011                	j	3184 <test_34+0x8>
    3182:	a065                	j	322a <fail>
    3184:	00000e93          	li	t4,0
    3188:	02200e13          	li	t3,34
    318c:	09d01f63          	bne	zero,t4,322a <fail>

00003190 <test_35>:
    3190:	00000297          	auipc	t0,0x0
    3194:	00e28293          	addi	t0,t0,14 # 319e <test_35+0xe>
    3198:	4081                	li	ra,0
    319a:	8282                	jr	t0
    319c:	a011                	j	31a0 <test_35+0x10>
    319e:	a011                	j	31a2 <test_35+0x12>
    31a0:	a069                	j	322a <fail>
    31a2:	00000e93          	li	t4,0
    31a6:	02300e13          	li	t3,35
    31aa:	09d09063          	bne	ra,t4,322a <fail>

000031ae <test_36>:
    31ae:	00000297          	auipc	t0,0x0
    31b2:	00e28293          	addi	t0,t0,14 # 31bc <test_36+0xe>
    31b6:	4081                	li	ra,0
    31b8:	9282                	jalr	t0
    31ba:	a011                	j	31be <test_36+0x10>
    31bc:	a011                	j	31c0 <test_36+0x12>
    31be:	a0b5                	j	322a <fail>
    31c0:	405080b3          	sub	ra,ra,t0
    31c4:	ffe00e93          	li	t4,-2
    31c8:	02400e13          	li	t3,36
    31cc:	05d09f63          	bne	ra,t4,322a <fail>

000031d0 <test_37>:
    31d0:	00000297          	auipc	t0,0x0
    31d4:	00e28293          	addi	t0,t0,14 # 31de <test_37+0xe>
    31d8:	4081                	li	ra,0
    31da:	2011                	jal	31de <test_37+0xe>
    31dc:	a011                	j	31e0 <test_37+0x10>
    31de:	a011                	j	31e2 <test_37+0x12>
    31e0:	a0a9                	j	322a <fail>
    31e2:	405080b3          	sub	ra,ra,t0
    31e6:	ffe00e93          	li	t4,-2
    31ea:	02500e13          	li	t3,37
    31ee:	03d09e63          	bne	ra,t4,322a <fail>
    31f2:	ffffe117          	auipc	sp,0xffffe
    31f6:	e1e10113          	addi	sp,sp,-482 # 1010 <data>

000031fa <test_40>:
    31fa:	4532                	lw	a0,12(sp)
    31fc:	0505                	addi	a0,a0,1
    31fe:	c62a                	sw	a0,12(sp)
    3200:	4632                	lw	a2,12(sp)
    3202:	fedcceb7          	lui	t4,0xfedcc
    3206:	a99e8e93          	addi	t4,t4,-1383 # fedcba99 <_gp+0xfedc7211>
    320a:	02800e13          	li	t3,40
    320e:	01d61e63          	bne	a2,t4,322a <fail>

00003212 <test_42>:
    3212:	12300513          	li	a0,291
    3216:	82aa                	mv	t0,a0
    3218:	92aa                	add	t0,t0,a0
    321a:	24600e93          	li	t4,582
    321e:	02a00e13          	li	t3,42
    3222:	01d29463          	bne	t0,t4,322a <fail>
    3226:	01c01863          	bne	zero,t3,3236 <pass>

0000322a <fail>:
    322a:	0ff0000f          	fence
    322e:	85f2                	mv	a1,t3
    3230:	4505                	li	a0,1
    3232:	00000073          	ecall

00003236 <pass>:
    3236:	0ff0000f          	fence
    323a:	85f2                	mv	a1,t3
    323c:	4501                	li	a0,0
    323e:	00000073          	ecall

00003242 <ecall>:
    3242:	00000073          	ecall
	...

00003fe0 <sc_exit>:
    3fe0:	914fc06f          	j	f4 <SIM_EXIT>
    3fe4:	00000013          	nop
    3fe8:	00000013          	nop
    3fec:	00000013          	nop
    3ff0:	00000013          	nop
    3ff4:	00000013          	nop
    3ff8:	00000013          	nop
    3ffc:	00000013          	nop
	...

Disassembly of section .tohost:

00004040 <tohost>:
	...

00004080 <fromhost>:
	...
