
/media/sf_virtualbox_shared/scr1_opensource/build/sub.elf:     file format elf32-littleriscv


Disassembly of section .text.init:

00000000 <SIM_EXIT-0xf4>:
	...

000000f4 <SIM_EXIT>:
  f4:	00000013          	nop

000000f8 <SIM_STOP>:
  f8:	0000006f          	j	f8 <SIM_STOP>
  fc:	ffff                	0xffff
  fe:	ffff                	0xffff
	...

000001c0 <trap_vector>:
 1c0:	34202f73          	csrr	t5,mcause
 1c4:	4fa1                	li	t6,8
 1c6:	03ff0563          	beq	t5,t6,1f0 <_report>
 1ca:	4fa5                	li	t6,9
 1cc:	03ff0263          	beq	t5,t6,1f0 <_report>
 1d0:	4fad                	li	t6,11
 1d2:	01ff0f63          	beq	t5,t6,1f0 <_report>
 1d6:	00000f17          	auipc	t5,0x0
 1da:	e2af0f13          	addi	t5,t5,-470 # 0 <CL_SIZE-0x20>
 1de:	000f0363          	beqz	t5,1e4 <trap_vector+0x24>
 1e2:	8f02                	jr	t5
 1e4:	34202f73          	csrr	t5,mcause
 1e8:	000f5363          	bgez	t5,1ee <handle_exception>
 1ec:	a009                	j	1ee <handle_exception>

000001ee <handle_exception>:
 1ee:	4505                	li	a0,1

000001f0 <_report>:
 1f0:	4500006f          	j	640 <sc_exit>
 1f4:	00000013          	nop
 1f8:	00000013          	nop
 1fc:	00000013          	nop

00000200 <_start>:
 200:	f1402573          	csrr	a0,mhartid
 204:	e101                	bnez	a0,204 <_start+0x4>
 206:	4e01                	li	t3,0
 208:	00000297          	auipc	t0,0x0
 20c:	fb828293          	addi	t0,t0,-72 # 1c0 <trap_vector>
 210:	30529073          	csrw	mtvec,t0
 214:	4505                	li	a0,1
 216:	057e                	slli	a0,a0,0x1f
 218:	00054863          	bltz	a0,228 <_start+0x28>
 21c:	0ff0000f          	fence
 220:	85f2                	mv	a1,t3
 222:	4501                	li	a0,0
 224:	00000073          	ecall
 228:	00000297          	auipc	t0,0x0
 22c:	dd828293          	addi	t0,t0,-552 # 0 <CL_SIZE-0x20>
 230:	00028e63          	beqz	t0,24c <_start+0x4c>
 234:	10529073          	csrw	stvec,t0
 238:	0000b2b7          	lui	t0,0xb
 23c:	10928293          	addi	t0,t0,265 # b109 <_gp+0xa241>
 240:	30229073          	csrw	medeleg,t0
 244:	30202373          	csrr	t1,medeleg
 248:	fa6293e3          	bne	t0,t1,1ee <handle_exception>
 24c:	30005073          	csrwi	mstatus,0
 250:	00000297          	auipc	t0,0x0
 254:	05028293          	addi	t0,t0,80 # 2a0 <_run_test>
 258:	34129073          	csrw	mepc,t0
 25c:	f1402573          	csrr	a0,mhartid
 260:	30200073          	mret
	...

Disassembly of section .text:

000002a0 <_run_test>:
 2a0:	4081                	li	ra,0
 2a2:	4101                	li	sp,0
 2a4:	402081b3          	sub	gp,ra,sp
 2a8:	4e81                	li	t4,0
 2aa:	4e09                	li	t3,2
 2ac:	37d19163          	bne	gp,t4,60e <fail>

000002b0 <test_3>:
 2b0:	4085                	li	ra,1
 2b2:	4105                	li	sp,1
 2b4:	402081b3          	sub	gp,ra,sp
 2b8:	4e81                	li	t4,0
 2ba:	4e0d                	li	t3,3
 2bc:	35d19963          	bne	gp,t4,60e <fail>

000002c0 <test_4>:
 2c0:	408d                	li	ra,3
 2c2:	411d                	li	sp,7
 2c4:	402081b3          	sub	gp,ra,sp
 2c8:	ffc00e93          	li	t4,-4
 2cc:	4e11                	li	t3,4
 2ce:	35d19063          	bne	gp,t4,60e <fail>

000002d2 <test_5>:
 2d2:	4081                	li	ra,0
 2d4:	ffff8137          	lui	sp,0xffff8
 2d8:	402081b3          	sub	gp,ra,sp
 2dc:	6ea1                	lui	t4,0x8
 2de:	4e15                	li	t3,5
 2e0:	33d19763          	bne	gp,t4,60e <fail>

000002e4 <test_6>:
 2e4:	800000b7          	lui	ra,0x80000
 2e8:	4101                	li	sp,0
 2ea:	402081b3          	sub	gp,ra,sp
 2ee:	80000eb7          	lui	t4,0x80000
 2f2:	4e19                	li	t3,6
 2f4:	31d19d63          	bne	gp,t4,60e <fail>

000002f8 <test_7>:
 2f8:	800000b7          	lui	ra,0x80000
 2fc:	ffff8137          	lui	sp,0xffff8
 300:	402081b3          	sub	gp,ra,sp
 304:	80008eb7          	lui	t4,0x80008
 308:	4e1d                	li	t3,7
 30a:	31d19263          	bne	gp,t4,60e <fail>

0000030e <test_8>:
 30e:	4081                	li	ra,0
 310:	00008137          	lui	sp,0x8
 314:	fff10113          	addi	sp,sp,-1 # 7fff <_gp+0x7137>
 318:	402081b3          	sub	gp,ra,sp
 31c:	ffff8eb7          	lui	t4,0xffff8
 320:	001e8e93          	addi	t4,t4,1 # ffff8001 <_gp+0xffff7139>
 324:	4e21                	li	t3,8
 326:	2fd19463          	bne	gp,t4,60e <fail>

0000032a <test_9>:
 32a:	800000b7          	lui	ra,0x80000
 32e:	fff08093          	addi	ra,ra,-1 # 7fffffff <_gp+0x7ffff137>
 332:	4101                	li	sp,0
 334:	402081b3          	sub	gp,ra,sp
 338:	80000eb7          	lui	t4,0x80000
 33c:	fffe8e93          	addi	t4,t4,-1 # 7fffffff <_gp+0x7ffff137>
 340:	4e25                	li	t3,9
 342:	2dd19663          	bne	gp,t4,60e <fail>

00000346 <test_10>:
 346:	800000b7          	lui	ra,0x80000
 34a:	fff08093          	addi	ra,ra,-1 # 7fffffff <_gp+0x7ffff137>
 34e:	00008137          	lui	sp,0x8
 352:	fff10113          	addi	sp,sp,-1 # 7fff <_gp+0x7137>
 356:	402081b3          	sub	gp,ra,sp
 35a:	7fff8eb7          	lui	t4,0x7fff8
 35e:	4e29                	li	t3,10
 360:	2bd19763          	bne	gp,t4,60e <fail>

00000364 <test_11>:
 364:	800000b7          	lui	ra,0x80000
 368:	00008137          	lui	sp,0x8
 36c:	fff10113          	addi	sp,sp,-1 # 7fff <_gp+0x7137>
 370:	402081b3          	sub	gp,ra,sp
 374:	7fff8eb7          	lui	t4,0x7fff8
 378:	001e8e93          	addi	t4,t4,1 # 7fff8001 <_gp+0x7fff7139>
 37c:	4e2d                	li	t3,11
 37e:	29d19863          	bne	gp,t4,60e <fail>

00000382 <test_12>:
 382:	800000b7          	lui	ra,0x80000
 386:	fff08093          	addi	ra,ra,-1 # 7fffffff <_gp+0x7ffff137>
 38a:	ffff8137          	lui	sp,0xffff8
 38e:	402081b3          	sub	gp,ra,sp
 392:	80008eb7          	lui	t4,0x80008
 396:	fffe8e93          	addi	t4,t4,-1 # 80007fff <_gp+0x80007137>
 39a:	4e31                	li	t3,12
 39c:	27d19963          	bne	gp,t4,60e <fail>

000003a0 <test_13>:
 3a0:	4081                	li	ra,0
 3a2:	fff00113          	li	sp,-1
 3a6:	402081b3          	sub	gp,ra,sp
 3aa:	4e85                	li	t4,1
 3ac:	4e35                	li	t3,13
 3ae:	27d19063          	bne	gp,t4,60e <fail>

000003b2 <test_14>:
 3b2:	fff00093          	li	ra,-1
 3b6:	4105                	li	sp,1
 3b8:	402081b3          	sub	gp,ra,sp
 3bc:	ffe00e93          	li	t4,-2
 3c0:	4e39                	li	t3,14
 3c2:	25d19663          	bne	gp,t4,60e <fail>

000003c6 <test_15>:
 3c6:	fff00093          	li	ra,-1
 3ca:	fff00113          	li	sp,-1
 3ce:	402081b3          	sub	gp,ra,sp
 3d2:	4e81                	li	t4,0
 3d4:	4e3d                	li	t3,15
 3d6:	23d19c63          	bne	gp,t4,60e <fail>

000003da <test_16>:
 3da:	40b5                	li	ra,13
 3dc:	412d                	li	sp,11
 3de:	402080b3          	sub	ra,ra,sp
 3e2:	4e89                	li	t4,2
 3e4:	4e41                	li	t3,16
 3e6:	23d09463          	bne	ra,t4,60e <fail>

000003ea <test_17>:
 3ea:	40b9                	li	ra,14
 3ec:	412d                	li	sp,11
 3ee:	40208133          	sub	sp,ra,sp
 3f2:	4e8d                	li	t4,3
 3f4:	4e45                	li	t3,17
 3f6:	21d11c63          	bne	sp,t4,60e <fail>

000003fa <test_18>:
 3fa:	40b5                	li	ra,13
 3fc:	401080b3          	sub	ra,ra,ra
 400:	4e81                	li	t4,0
 402:	4e49                	li	t3,18
 404:	21d09563          	bne	ra,t4,60e <fail>

00000408 <test_19>:
 408:	4201                	li	tp,0
 40a:	40b5                	li	ra,13
 40c:	412d                	li	sp,11
 40e:	402081b3          	sub	gp,ra,sp
 412:	00018313          	mv	t1,gp
 416:	0205                	addi	tp,tp,1
 418:	4289                	li	t0,2
 41a:	fe5218e3          	bne	tp,t0,40a <test_19+0x2>
 41e:	4e89                	li	t4,2
 420:	4e4d                	li	t3,19
 422:	1fd31663          	bne	t1,t4,60e <fail>

00000426 <test_20>:
 426:	4201                	li	tp,0
 428:	40b9                	li	ra,14
 42a:	412d                	li	sp,11
 42c:	402081b3          	sub	gp,ra,sp
 430:	0001                	nop
 432:	00018313          	mv	t1,gp
 436:	0205                	addi	tp,tp,1
 438:	4289                	li	t0,2
 43a:	fe5217e3          	bne	tp,t0,428 <test_20+0x2>
 43e:	4e8d                	li	t4,3
 440:	4e51                	li	t3,20
 442:	1dd31663          	bne	t1,t4,60e <fail>

00000446 <test_21>:
 446:	4201                	li	tp,0
 448:	40bd                	li	ra,15
 44a:	412d                	li	sp,11
 44c:	402081b3          	sub	gp,ra,sp
 450:	0001                	nop
 452:	0001                	nop
 454:	00018313          	mv	t1,gp
 458:	0205                	addi	tp,tp,1
 45a:	4289                	li	t0,2
 45c:	fe5216e3          	bne	tp,t0,448 <test_21+0x2>
 460:	4e91                	li	t4,4
 462:	4e55                	li	t3,21
 464:	1bd31563          	bne	t1,t4,60e <fail>

00000468 <test_22>:
 468:	4201                	li	tp,0
 46a:	40b5                	li	ra,13
 46c:	412d                	li	sp,11
 46e:	402081b3          	sub	gp,ra,sp
 472:	0205                	addi	tp,tp,1
 474:	4289                	li	t0,2
 476:	fe521ae3          	bne	tp,t0,46a <test_22+0x2>
 47a:	4e89                	li	t4,2
 47c:	4e59                	li	t3,22
 47e:	19d19863          	bne	gp,t4,60e <fail>

00000482 <test_23>:
 482:	4201                	li	tp,0
 484:	40b9                	li	ra,14
 486:	412d                	li	sp,11
 488:	0001                	nop
 48a:	402081b3          	sub	gp,ra,sp
 48e:	0205                	addi	tp,tp,1
 490:	4289                	li	t0,2
 492:	fe5219e3          	bne	tp,t0,484 <test_23+0x2>
 496:	4e8d                	li	t4,3
 498:	4e5d                	li	t3,23
 49a:	17d19a63          	bne	gp,t4,60e <fail>

0000049e <test_24>:
 49e:	4201                	li	tp,0
 4a0:	40bd                	li	ra,15
 4a2:	412d                	li	sp,11
 4a4:	0001                	nop
 4a6:	0001                	nop
 4a8:	402081b3          	sub	gp,ra,sp
 4ac:	0205                	addi	tp,tp,1
 4ae:	4289                	li	t0,2
 4b0:	fe5218e3          	bne	tp,t0,4a0 <test_24+0x2>
 4b4:	4e91                	li	t4,4
 4b6:	4e61                	li	t3,24
 4b8:	15d19b63          	bne	gp,t4,60e <fail>

000004bc <test_25>:
 4bc:	4201                	li	tp,0
 4be:	40b5                	li	ra,13
 4c0:	0001                	nop
 4c2:	412d                	li	sp,11
 4c4:	402081b3          	sub	gp,ra,sp
 4c8:	0205                	addi	tp,tp,1
 4ca:	4289                	li	t0,2
 4cc:	fe5219e3          	bne	tp,t0,4be <test_25+0x2>
 4d0:	4e89                	li	t4,2
 4d2:	4e65                	li	t3,25
 4d4:	13d19d63          	bne	gp,t4,60e <fail>

000004d8 <test_26>:
 4d8:	4201                	li	tp,0
 4da:	40b9                	li	ra,14
 4dc:	0001                	nop
 4de:	412d                	li	sp,11
 4e0:	0001                	nop
 4e2:	402081b3          	sub	gp,ra,sp
 4e6:	0205                	addi	tp,tp,1
 4e8:	4289                	li	t0,2
 4ea:	fe5218e3          	bne	tp,t0,4da <test_26+0x2>
 4ee:	4e8d                	li	t4,3
 4f0:	4e69                	li	t3,26
 4f2:	11d19e63          	bne	gp,t4,60e <fail>

000004f6 <test_27>:
 4f6:	4201                	li	tp,0
 4f8:	40bd                	li	ra,15
 4fa:	0001                	nop
 4fc:	0001                	nop
 4fe:	412d                	li	sp,11
 500:	402081b3          	sub	gp,ra,sp
 504:	0205                	addi	tp,tp,1
 506:	4289                	li	t0,2
 508:	fe5218e3          	bne	tp,t0,4f8 <test_27+0x2>
 50c:	4e91                	li	t4,4
 50e:	4e6d                	li	t3,27
 510:	0fd19f63          	bne	gp,t4,60e <fail>

00000514 <test_28>:
 514:	4201                	li	tp,0
 516:	412d                	li	sp,11
 518:	40b5                	li	ra,13
 51a:	402081b3          	sub	gp,ra,sp
 51e:	0205                	addi	tp,tp,1
 520:	4289                	li	t0,2
 522:	fe521ae3          	bne	tp,t0,516 <test_28+0x2>
 526:	4e89                	li	t4,2
 528:	4e71                	li	t3,28
 52a:	0fd19263          	bne	gp,t4,60e <fail>

0000052e <test_29>:
 52e:	4201                	li	tp,0
 530:	412d                	li	sp,11
 532:	40b9                	li	ra,14
 534:	0001                	nop
 536:	402081b3          	sub	gp,ra,sp
 53a:	0205                	addi	tp,tp,1
 53c:	4289                	li	t0,2
 53e:	fe5219e3          	bne	tp,t0,530 <test_29+0x2>
 542:	4e8d                	li	t4,3
 544:	4e75                	li	t3,29
 546:	0dd19463          	bne	gp,t4,60e <fail>

0000054a <test_30>:
 54a:	4201                	li	tp,0
 54c:	412d                	li	sp,11
 54e:	40bd                	li	ra,15
 550:	0001                	nop
 552:	0001                	nop
 554:	402081b3          	sub	gp,ra,sp
 558:	0205                	addi	tp,tp,1
 55a:	4289                	li	t0,2
 55c:	fe5218e3          	bne	tp,t0,54c <test_30+0x2>
 560:	4e91                	li	t4,4
 562:	4e79                	li	t3,30
 564:	0bd19563          	bne	gp,t4,60e <fail>

00000568 <test_31>:
 568:	4201                	li	tp,0
 56a:	412d                	li	sp,11
 56c:	0001                	nop
 56e:	40b5                	li	ra,13
 570:	402081b3          	sub	gp,ra,sp
 574:	0205                	addi	tp,tp,1
 576:	4289                	li	t0,2
 578:	fe5219e3          	bne	tp,t0,56a <test_31+0x2>
 57c:	4e89                	li	t4,2
 57e:	4e7d                	li	t3,31
 580:	09d19763          	bne	gp,t4,60e <fail>

00000584 <test_32>:
 584:	4201                	li	tp,0
 586:	412d                	li	sp,11
 588:	0001                	nop
 58a:	40b9                	li	ra,14
 58c:	0001                	nop
 58e:	402081b3          	sub	gp,ra,sp
 592:	0205                	addi	tp,tp,1
 594:	4289                	li	t0,2
 596:	fe5218e3          	bne	tp,t0,586 <test_32+0x2>
 59a:	4e8d                	li	t4,3
 59c:	02000e13          	li	t3,32
 5a0:	07d19763          	bne	gp,t4,60e <fail>

000005a4 <test_33>:
 5a4:	4201                	li	tp,0
 5a6:	412d                	li	sp,11
 5a8:	0001                	nop
 5aa:	0001                	nop
 5ac:	40bd                	li	ra,15
 5ae:	402081b3          	sub	gp,ra,sp
 5b2:	0205                	addi	tp,tp,1
 5b4:	4289                	li	t0,2
 5b6:	fe5218e3          	bne	tp,t0,5a6 <test_33+0x2>
 5ba:	4e91                	li	t4,4
 5bc:	02100e13          	li	t3,33
 5c0:	05d19763          	bne	gp,t4,60e <fail>

000005c4 <test_34>:
 5c4:	ff100093          	li	ra,-15
 5c8:	40100133          	neg	sp,ra
 5cc:	4ebd                	li	t4,15
 5ce:	02200e13          	li	t3,34
 5d2:	03d11e63          	bne	sp,t4,60e <fail>

000005d6 <test_35>:
 5d6:	02000093          	li	ra,32
 5da:	40008133          	sub	sp,ra,zero
 5de:	02000e93          	li	t4,32
 5e2:	02300e13          	li	t3,35
 5e6:	03d11463          	bne	sp,t4,60e <fail>

000005ea <test_36>:
 5ea:	400000b3          	neg	ra,zero
 5ee:	4e81                	li	t4,0
 5f0:	02400e13          	li	t3,36
 5f4:	01d09d63          	bne	ra,t4,60e <fail>

000005f8 <test_37>:
 5f8:	40c1                	li	ra,16
 5fa:	4179                	li	sp,30
 5fc:	40208033          	sub	zero,ra,sp
 600:	4e81                	li	t4,0
 602:	02500e13          	li	t3,37
 606:	01d01463          	bne	zero,t4,60e <fail>
 60a:	01c01863          	bne	zero,t3,61a <pass>

0000060e <fail>:
 60e:	0ff0000f          	fence
 612:	85f2                	mv	a1,t3
 614:	4505                	li	a0,1
 616:	00000073          	ecall

0000061a <pass>:
 61a:	0ff0000f          	fence
 61e:	85f2                	mv	a1,t3
 620:	4501                	li	a0,0
 622:	00000073          	ecall

00000626 <ecall>:
 626:	00000073          	ecall
	...

00000640 <sc_exit>:
 640:	ab5ff06f          	j	f4 <SIM_EXIT>
 644:	00000013          	nop
 648:	00000013          	nop
 64c:	00000013          	nop
 650:	00000013          	nop
 654:	00000013          	nop
 658:	00000013          	nop
 65c:	00000013          	nop
	...

Disassembly of section .tohost:

00000680 <tohost>:
	...

000006c0 <fromhost>:
	...
