
/media/sf_virtualbox_shared/scr1_opensource/build/sw.elf:     file format elf32-littleriscv


Disassembly of section .text.init:

00000000 <SIM_EXIT-0xf4>:
	...

000000f4 <SIM_EXIT>:
  f4:	00000013          	nop

000000f8 <SIM_STOP>:
  f8:	0000006f          	j	f8 <SIM_STOP>
  fc:	ffff                	0xffff
  fe:	ffff                	0xffff
	...

000001c0 <trap_vector>:
 1c0:	34202f73          	csrr	t5,mcause
 1c4:	4fa1                	li	t6,8
 1c6:	03ff0563          	beq	t5,t6,1f0 <_report>
 1ca:	4fa5                	li	t6,9
 1cc:	03ff0263          	beq	t5,t6,1f0 <_report>
 1d0:	4fad                	li	t6,11
 1d2:	01ff0f63          	beq	t5,t6,1f0 <_report>
 1d6:	00000f17          	auipc	t5,0x0
 1da:	e2af0f13          	addi	t5,t5,-470 # 0 <CL_SIZE-0x20>
 1de:	000f0363          	beqz	t5,1e4 <trap_vector+0x24>
 1e2:	8f02                	jr	t5
 1e4:	34202f73          	csrr	t5,mcause
 1e8:	000f5363          	bgez	t5,1ee <handle_exception>
 1ec:	a009                	j	1ee <handle_exception>

000001ee <handle_exception>:
 1ee:	4505                	li	a0,1

000001f0 <_report>:
 1f0:	4900006f          	j	680 <sc_exit>
 1f4:	00000013          	nop
 1f8:	00000013          	nop
 1fc:	00000013          	nop

00000200 <_start>:
 200:	f1402573          	csrr	a0,mhartid
 204:	e101                	bnez	a0,204 <_start+0x4>
 206:	4e01                	li	t3,0
 208:	00000297          	auipc	t0,0x0
 20c:	fb828293          	addi	t0,t0,-72 # 1c0 <trap_vector>
 210:	30529073          	csrw	mtvec,t0
 214:	4505                	li	a0,1
 216:	057e                	slli	a0,a0,0x1f
 218:	00054863          	bltz	a0,228 <_start+0x28>
 21c:	0ff0000f          	fence
 220:	85f2                	mv	a1,t3
 222:	4501                	li	a0,0
 224:	00000073          	ecall
 228:	00000297          	auipc	t0,0x0
 22c:	dd828293          	addi	t0,t0,-552 # 0 <CL_SIZE-0x20>
 230:	00028e63          	beqz	t0,24c <_start+0x4c>
 234:	10529073          	csrw	stvec,t0
 238:	0000b2b7          	lui	t0,0xb
 23c:	10928293          	addi	t0,t0,265 # b109 <_gp+0xa1c1>
 240:	30229073          	csrw	medeleg,t0
 244:	30202373          	csrr	t1,medeleg
 248:	fa6293e3          	bne	t0,t1,1ee <handle_exception>
 24c:	30005073          	csrwi	mstatus,0
 250:	00000297          	auipc	t0,0x0
 254:	05028293          	addi	t0,t0,80 # 2a0 <_run_test>
 258:	34129073          	csrw	mepc,t0
 25c:	f1402573          	csrr	a0,mhartid
 260:	30200073          	mret
	...

Disassembly of section .text:

000002a0 <_run_test>:
 2a0:	00000097          	auipc	ra,0x0
 2a4:	42008093          	addi	ra,ra,1056 # 6c0 <begin_signature>
 2a8:	00aa0137          	lui	sp,0xaa0
 2ac:	0aa10113          	addi	sp,sp,170 # aa00aa <_gp+0xa9f162>
 2b0:	0020a023          	sw	sp,0(ra)
 2b4:	0000a183          	lw	gp,0(ra)
 2b8:	00aa0eb7          	lui	t4,0xaa0
 2bc:	0aae8e93          	addi	t4,t4,170 # aa00aa <_gp+0xa9f162>
 2c0:	4e09                	li	t3,2
 2c2:	39d19e63          	bne	gp,t4,65e <fail>

000002c6 <test_3>:
 2c6:	00000097          	auipc	ra,0x0
 2ca:	3fa08093          	addi	ra,ra,1018 # 6c0 <begin_signature>
 2ce:	aa00b137          	lui	sp,0xaa00b
 2d2:	a0010113          	addi	sp,sp,-1536 # aa00aa00 <_gp+0xaa009ab8>
 2d6:	0020a223          	sw	sp,4(ra)
 2da:	0040a183          	lw	gp,4(ra)
 2de:	aa00beb7          	lui	t4,0xaa00b
 2e2:	a00e8e93          	addi	t4,t4,-1536 # aa00aa00 <_gp+0xaa009ab8>
 2e6:	4e0d                	li	t3,3
 2e8:	37d19b63          	bne	gp,t4,65e <fail>

000002ec <test_4>:
 2ec:	00000097          	auipc	ra,0x0
 2f0:	3d408093          	addi	ra,ra,980 # 6c0 <begin_signature>
 2f4:	0aa01137          	lui	sp,0xaa01
 2f8:	aa010113          	addi	sp,sp,-1376 # aa00aa0 <_gp+0xa9ffb58>
 2fc:	0020a423          	sw	sp,8(ra)
 300:	0080a183          	lw	gp,8(ra)
 304:	0aa01eb7          	lui	t4,0xaa01
 308:	aa0e8e93          	addi	t4,t4,-1376 # aa00aa0 <_gp+0xa9ffb58>
 30c:	4e11                	li	t3,4
 30e:	35d19863          	bne	gp,t4,65e <fail>

00000312 <test_5>:
 312:	00000097          	auipc	ra,0x0
 316:	3ae08093          	addi	ra,ra,942 # 6c0 <begin_signature>
 31a:	a00aa137          	lui	sp,0xa00aa
 31e:	00a10113          	addi	sp,sp,10 # a00aa00a <_gp+0xa00a90c2>
 322:	0020a623          	sw	sp,12(ra)
 326:	00c0a183          	lw	gp,12(ra)
 32a:	a00aaeb7          	lui	t4,0xa00aa
 32e:	00ae8e93          	addi	t4,t4,10 # a00aa00a <_gp+0xa00a90c2>
 332:	4e15                	li	t3,5
 334:	33d19563          	bne	gp,t4,65e <fail>

00000338 <test_6>:
 338:	00000097          	auipc	ra,0x0
 33c:	3a408093          	addi	ra,ra,932 # 6dc <tdat8>
 340:	00aa0137          	lui	sp,0xaa0
 344:	0aa10113          	addi	sp,sp,170 # aa00aa <_gp+0xa9f162>
 348:	fe20aa23          	sw	sp,-12(ra)
 34c:	ff40a183          	lw	gp,-12(ra)
 350:	00aa0eb7          	lui	t4,0xaa0
 354:	0aae8e93          	addi	t4,t4,170 # aa00aa <_gp+0xa9f162>
 358:	4e19                	li	t3,6
 35a:	31d19263          	bne	gp,t4,65e <fail>

0000035e <test_7>:
 35e:	00000097          	auipc	ra,0x0
 362:	37e08093          	addi	ra,ra,894 # 6dc <tdat8>
 366:	aa00b137          	lui	sp,0xaa00b
 36a:	a0010113          	addi	sp,sp,-1536 # aa00aa00 <_gp+0xaa009ab8>
 36e:	fe20ac23          	sw	sp,-8(ra)
 372:	ff80a183          	lw	gp,-8(ra)
 376:	aa00beb7          	lui	t4,0xaa00b
 37a:	a00e8e93          	addi	t4,t4,-1536 # aa00aa00 <_gp+0xaa009ab8>
 37e:	4e1d                	li	t3,7
 380:	2dd19f63          	bne	gp,t4,65e <fail>

00000384 <test_8>:
 384:	00000097          	auipc	ra,0x0
 388:	35808093          	addi	ra,ra,856 # 6dc <tdat8>
 38c:	0aa01137          	lui	sp,0xaa01
 390:	aa010113          	addi	sp,sp,-1376 # aa00aa0 <_gp+0xa9ffb58>
 394:	fe20ae23          	sw	sp,-4(ra)
 398:	ffc0a183          	lw	gp,-4(ra)
 39c:	0aa01eb7          	lui	t4,0xaa01
 3a0:	aa0e8e93          	addi	t4,t4,-1376 # aa00aa0 <_gp+0xa9ffb58>
 3a4:	4e21                	li	t3,8
 3a6:	2bd19c63          	bne	gp,t4,65e <fail>

000003aa <test_9>:
 3aa:	00000097          	auipc	ra,0x0
 3ae:	33208093          	addi	ra,ra,818 # 6dc <tdat8>
 3b2:	a00aa137          	lui	sp,0xa00aa
 3b6:	00a10113          	addi	sp,sp,10 # a00aa00a <_gp+0xa00a90c2>
 3ba:	0020a023          	sw	sp,0(ra)
 3be:	0000a183          	lw	gp,0(ra)
 3c2:	a00aaeb7          	lui	t4,0xa00aa
 3c6:	00ae8e93          	addi	t4,t4,10 # a00aa00a <_gp+0xa00a90c2>
 3ca:	4e25                	li	t3,9
 3cc:	29d19963          	bne	gp,t4,65e <fail>

000003d0 <test_10>:
 3d0:	00000097          	auipc	ra,0x0
 3d4:	31008093          	addi	ra,ra,784 # 6e0 <tdat9>
 3d8:	12345137          	lui	sp,0x12345
 3dc:	67810113          	addi	sp,sp,1656 # 12345678 <_gp+0x12344730>
 3e0:	fe008213          	addi	tp,ra,-32
 3e4:	02222023          	sw	sp,32(tp) # 20 <CL_SIZE>
 3e8:	0000a283          	lw	t0,0(ra)
 3ec:	12345eb7          	lui	t4,0x12345
 3f0:	678e8e93          	addi	t4,t4,1656 # 12345678 <_gp+0x12344730>
 3f4:	4e29                	li	t3,10
 3f6:	27d29463          	bne	t0,t4,65e <fail>

000003fa <test_11>:
 3fa:	00000097          	auipc	ra,0x0
 3fe:	2e608093          	addi	ra,ra,742 # 6e0 <tdat9>
 402:	58213137          	lui	sp,0x58213
 406:	09810113          	addi	sp,sp,152 # 58213098 <_gp+0x58212150>
 40a:	10f5                	addi	ra,ra,-3
 40c:	0020a3a3          	sw	sp,7(ra)
 410:	00000217          	auipc	tp,0x0
 414:	2d420213          	addi	tp,tp,724 # 6e4 <tdat10>
 418:	00022283          	lw	t0,0(tp) # 0 <CL_SIZE-0x20>
 41c:	58213eb7          	lui	t4,0x58213
 420:	098e8e93          	addi	t4,t4,152 # 58213098 <_gp+0x58212150>
 424:	4e2d                	li	t3,11
 426:	23d29c63          	bne	t0,t4,65e <fail>

0000042a <test_12>:
 42a:	4e31                	li	t3,12
 42c:	4201                	li	tp,0
 42e:	aabbd0b7          	lui	ra,0xaabbd
 432:	cdd08093          	addi	ra,ra,-803 # aabbccdd <_gp+0xaabbbd95>
 436:	00000117          	auipc	sp,0x0
 43a:	28a10113          	addi	sp,sp,650 # 6c0 <begin_signature>
 43e:	c006                	sw	ra,0(sp)
 440:	4182                	lw	gp,0(sp)
 442:	aabbdeb7          	lui	t4,0xaabbd
 446:	cdde8e93          	addi	t4,t4,-803 # aabbccdd <_gp+0xaabbbd95>
 44a:	21d19a63          	bne	gp,t4,65e <fail>
 44e:	0205                	addi	tp,tp,1
 450:	4289                	li	t0,2
 452:	fc521ee3          	bne	tp,t0,42e <test_12+0x4>

00000456 <test_13>:
 456:	4e35                	li	t3,13
 458:	4201                	li	tp,0
 45a:	daabc0b7          	lui	ra,0xdaabc
 45e:	ccd08093          	addi	ra,ra,-819 # daabbccd <_gp+0xdaabad85>
 462:	00000117          	auipc	sp,0x0
 466:	25e10113          	addi	sp,sp,606 # 6c0 <begin_signature>
 46a:	0001                	nop
 46c:	c206                	sw	ra,4(sp)
 46e:	4192                	lw	gp,4(sp)
 470:	daabceb7          	lui	t4,0xdaabc
 474:	ccde8e93          	addi	t4,t4,-819 # daabbccd <_gp+0xdaabad85>
 478:	1fd19363          	bne	gp,t4,65e <fail>
 47c:	0205                	addi	tp,tp,1
 47e:	4289                	li	t0,2
 480:	fc521de3          	bne	tp,t0,45a <test_13+0x4>

00000484 <test_14>:
 484:	4e39                	li	t3,14
 486:	4201                	li	tp,0
 488:	ddaac0b7          	lui	ra,0xddaac
 48c:	bcc08093          	addi	ra,ra,-1076 # ddaabbcc <_gp+0xddaaac84>
 490:	00000117          	auipc	sp,0x0
 494:	23010113          	addi	sp,sp,560 # 6c0 <begin_signature>
 498:	0001                	nop
 49a:	0001                	nop
 49c:	c406                	sw	ra,8(sp)
 49e:	41a2                	lw	gp,8(sp)
 4a0:	ddaaceb7          	lui	t4,0xddaac
 4a4:	bcce8e93          	addi	t4,t4,-1076 # ddaabbcc <_gp+0xddaaac84>
 4a8:	1bd19b63          	bne	gp,t4,65e <fail>
 4ac:	0205                	addi	tp,tp,1
 4ae:	4289                	li	t0,2
 4b0:	fc521ce3          	bne	tp,t0,488 <test_14+0x4>

000004b4 <test_15>:
 4b4:	4e3d                	li	t3,15
 4b6:	4201                	li	tp,0
 4b8:	cddab0b7          	lui	ra,0xcddab
 4bc:	bbc08093          	addi	ra,ra,-1092 # cddaabbc <_gp+0xcdda9c74>
 4c0:	0001                	nop
 4c2:	00000117          	auipc	sp,0x0
 4c6:	1fe10113          	addi	sp,sp,510 # 6c0 <begin_signature>
 4ca:	c606                	sw	ra,12(sp)
 4cc:	41b2                	lw	gp,12(sp)
 4ce:	cddabeb7          	lui	t4,0xcddab
 4d2:	bbce8e93          	addi	t4,t4,-1092 # cddaabbc <_gp+0xcdda9c74>
 4d6:	19d19463          	bne	gp,t4,65e <fail>
 4da:	0205                	addi	tp,tp,1
 4dc:	4289                	li	t0,2
 4de:	fc521de3          	bne	tp,t0,4b8 <test_15+0x4>

000004e2 <test_16>:
 4e2:	4e41                	li	t3,16
 4e4:	4201                	li	tp,0
 4e6:	ccddb0b7          	lui	ra,0xccddb
 4ea:	abb08093          	addi	ra,ra,-1349 # ccddaabb <_gp+0xccdd9b73>
 4ee:	0001                	nop
 4f0:	00000117          	auipc	sp,0x0
 4f4:	1d010113          	addi	sp,sp,464 # 6c0 <begin_signature>
 4f8:	0001                	nop
 4fa:	c806                	sw	ra,16(sp)
 4fc:	41c2                	lw	gp,16(sp)
 4fe:	ccddbeb7          	lui	t4,0xccddb
 502:	abbe8e93          	addi	t4,t4,-1349 # ccddaabb <_gp+0xccdd9b73>
 506:	15d19c63          	bne	gp,t4,65e <fail>
 50a:	0205                	addi	tp,tp,1
 50c:	4289                	li	t0,2
 50e:	fc521ce3          	bne	tp,t0,4e6 <test_16+0x4>

00000512 <test_17>:
 512:	4e45                	li	t3,17
 514:	4201                	li	tp,0
 516:	bccde0b7          	lui	ra,0xbccde
 51a:	aab08093          	addi	ra,ra,-1365 # bccddaab <_gp+0xbccdcb63>
 51e:	0001                	nop
 520:	0001                	nop
 522:	00000117          	auipc	sp,0x0
 526:	19e10113          	addi	sp,sp,414 # 6c0 <begin_signature>
 52a:	ca06                	sw	ra,20(sp)
 52c:	41d2                	lw	gp,20(sp)
 52e:	bccdeeb7          	lui	t4,0xbccde
 532:	aabe8e93          	addi	t4,t4,-1365 # bccddaab <_gp+0xbccdcb63>
 536:	13d19463          	bne	gp,t4,65e <fail>
 53a:	0205                	addi	tp,tp,1
 53c:	4289                	li	t0,2
 53e:	fc521ce3          	bne	tp,t0,516 <test_17+0x4>

00000542 <test_18>:
 542:	4e49                	li	t3,18
 544:	4201                	li	tp,0
 546:	00000117          	auipc	sp,0x0
 54a:	17a10113          	addi	sp,sp,378 # 6c0 <begin_signature>
 54e:	001120b7          	lui	ra,0x112
 552:	23308093          	addi	ra,ra,563 # 112233 <_gp+0x1112eb>
 556:	c006                	sw	ra,0(sp)
 558:	4182                	lw	gp,0(sp)
 55a:	00112eb7          	lui	t4,0x112
 55e:	233e8e93          	addi	t4,t4,563 # 112233 <_gp+0x1112eb>
 562:	0fd19e63          	bne	gp,t4,65e <fail>
 566:	0205                	addi	tp,tp,1
 568:	4289                	li	t0,2
 56a:	fc521ee3          	bne	tp,t0,546 <test_18+0x4>

0000056e <test_19>:
 56e:	4e4d                	li	t3,19
 570:	4201                	li	tp,0
 572:	00000117          	auipc	sp,0x0
 576:	14e10113          	addi	sp,sp,334 # 6c0 <begin_signature>
 57a:	300110b7          	lui	ra,0x30011
 57e:	22308093          	addi	ra,ra,547 # 30011223 <_gp+0x300102db>
 582:	0001                	nop
 584:	c206                	sw	ra,4(sp)
 586:	4192                	lw	gp,4(sp)
 588:	30011eb7          	lui	t4,0x30011
 58c:	223e8e93          	addi	t4,t4,547 # 30011223 <_gp+0x300102db>
 590:	0dd19763          	bne	gp,t4,65e <fail>
 594:	0205                	addi	tp,tp,1
 596:	4289                	li	t0,2
 598:	fc521de3          	bne	tp,t0,572 <test_19+0x4>

0000059c <test_20>:
 59c:	4e51                	li	t3,20
 59e:	4201                	li	tp,0
 5a0:	00000117          	auipc	sp,0x0
 5a4:	12010113          	addi	sp,sp,288 # 6c0 <begin_signature>
 5a8:	330010b7          	lui	ra,0x33001
 5ac:	12208093          	addi	ra,ra,290 # 33001122 <_gp+0x330001da>
 5b0:	0001                	nop
 5b2:	0001                	nop
 5b4:	c406                	sw	ra,8(sp)
 5b6:	41a2                	lw	gp,8(sp)
 5b8:	33001eb7          	lui	t4,0x33001
 5bc:	122e8e93          	addi	t4,t4,290 # 33001122 <_gp+0x330001da>
 5c0:	09d19f63          	bne	gp,t4,65e <fail>
 5c4:	0205                	addi	tp,tp,1
 5c6:	4289                	li	t0,2
 5c8:	fc521ce3          	bne	tp,t0,5a0 <test_20+0x4>

000005cc <test_21>:
 5cc:	4e55                	li	t3,21
 5ce:	4201                	li	tp,0
 5d0:	00000117          	auipc	sp,0x0
 5d4:	0f010113          	addi	sp,sp,240 # 6c0 <begin_signature>
 5d8:	0001                	nop
 5da:	233000b7          	lui	ra,0x23300
 5de:	11208093          	addi	ra,ra,274 # 23300112 <_gp+0x232ff1ca>
 5e2:	c606                	sw	ra,12(sp)
 5e4:	41b2                	lw	gp,12(sp)
 5e6:	23300eb7          	lui	t4,0x23300
 5ea:	112e8e93          	addi	t4,t4,274 # 23300112 <_gp+0x232ff1ca>
 5ee:	07d19863          	bne	gp,t4,65e <fail>
 5f2:	0205                	addi	tp,tp,1
 5f4:	4289                	li	t0,2
 5f6:	fc521de3          	bne	tp,t0,5d0 <test_21+0x4>

000005fa <test_22>:
 5fa:	4e59                	li	t3,22
 5fc:	4201                	li	tp,0
 5fe:	00000117          	auipc	sp,0x0
 602:	0c210113          	addi	sp,sp,194 # 6c0 <begin_signature>
 606:	0001                	nop
 608:	223300b7          	lui	ra,0x22330
 60c:	01108093          	addi	ra,ra,17 # 22330011 <_gp+0x2232f0c9>
 610:	0001                	nop
 612:	c806                	sw	ra,16(sp)
 614:	41c2                	lw	gp,16(sp)
 616:	22330eb7          	lui	t4,0x22330
 61a:	011e8e93          	addi	t4,t4,17 # 22330011 <_gp+0x2232f0c9>
 61e:	05d19063          	bne	gp,t4,65e <fail>
 622:	0205                	addi	tp,tp,1
 624:	4289                	li	t0,2
 626:	fc521ce3          	bne	tp,t0,5fe <test_22+0x4>

0000062a <test_23>:
 62a:	4e5d                	li	t3,23
 62c:	4201                	li	tp,0
 62e:	00000117          	auipc	sp,0x0
 632:	09210113          	addi	sp,sp,146 # 6c0 <begin_signature>
 636:	0001                	nop
 638:	0001                	nop
 63a:	122330b7          	lui	ra,0x12233
 63e:	00108093          	addi	ra,ra,1 # 12233001 <_gp+0x122320b9>
 642:	ca06                	sw	ra,20(sp)
 644:	41d2                	lw	gp,20(sp)
 646:	12233eb7          	lui	t4,0x12233
 64a:	001e8e93          	addi	t4,t4,1 # 12233001 <_gp+0x122320b9>
 64e:	01d19863          	bne	gp,t4,65e <fail>
 652:	0205                	addi	tp,tp,1
 654:	4289                	li	t0,2
 656:	fc521ce3          	bne	tp,t0,62e <test_23+0x4>
 65a:	01c01863          	bne	zero,t3,66a <pass>

0000065e <fail>:
 65e:	0ff0000f          	fence
 662:	85f2                	mv	a1,t3
 664:	4505                	li	a0,1
 666:	00000073          	ecall

0000066a <pass>:
 66a:	0ff0000f          	fence
 66e:	85f2                	mv	a1,t3
 670:	4501                	li	a0,0
 672:	00000073          	ecall

00000676 <ecall>:
 676:	00000073          	ecall
 67a:	0000                	unimp
 67c:	0000                	unimp
	...

00000680 <sc_exit>:
 680:	a75ff06f          	j	f4 <SIM_EXIT>
 684:	00000013          	nop
 688:	00000013          	nop
 68c:	00000013          	nop
 690:	00000013          	nop
 694:	00000013          	nop
 698:	00000013          	nop
 69c:	00000013          	nop
	...

Disassembly of section .tohost:

00000700 <tohost>:
	...

00000740 <fromhost>:
	...
